(dp1
S'IPR027469'
p2
I1178
sS'IPR007243'
p3
I3447
sS'IPR002202'
p4
I855
sS'IPR006276'
p5
I327
sS'IPR006275'
p6
I216
sS'IPR006274'
p7
I487
sS'IPR014720'
p8
I1473
sS'IPR014485'
p9
I2538
sS'IPR002205'
p10
I432
sS'IPR013833'
p11
I70
sS'IPR013831'
p12
I2819
sS'IPR009851'
p13
I4032
sS'IPR002190'
p14
I3638
sS'IPR013838'
p15
I183
sS'IPR002194'
p16
I851
sS'IPR002195'
p17
I1170
sS'IPR024193'
p18
I3583
sS'IPR007704'
p19
I2956
sS'IPR007873'
p20
I2304
sS'IPR007870'
p21
I2385
sS'IPR003822'
p22
I1322
sS'IPR010582'
p23
I385
sS'IPR014001'
p24
I23
sS'IPR011057'
p25
I1483
sS'IPR011054'
p26
I465
sS'IPR011053'
p27
I816
sS'IPR006650'
p28
I995
sS'IPR006653'
p29
I147
sS'IPR020241'
p30
I2356
sS'IPR000730'
p31
I1033
sS'IPR000731'
p32
I859
sS'IPR003137'
p33
I2251
sS'IPR003135'
p34
I1225
sS'IPR003602'
p35
I896
sS'IPR003703'
p36
I2847
sS'IPR002994'
p37
I3197
sS'IPR020061'
p38
I907
sS'IPR013791'
p39
I3795
sS'IPR014790'
p40
I954
sS'IPR013907'
p41
I1679
sS'IPR013906'
p42
I3645
sS'IPR013905'
p43
I2295
sS'IPR013904'
p44
I2340
sS'IPR006760'
p45
I3302
sS'IPR013900'
p46
I26
sS'IPR018854'
p47
I3786
sS'IPR011987'
p48
I2828
sS'IPR017440'
p49
I3246
sS'IPR017441'
p50
I89
sS'IPR017446'
p51
I599
sS'IPR000938'
p52
I836
sS'IPR014311'
p53
I3768
sS'IPR014646'
p54
I1547
sS'IPR014640'
p55
I2013
sS'IPR007676'
p56
I2812
sS'IPR007292'
p57
I3612
sS'IPR008389'
p58
I4013
sS'IPR007290'
p59
I3718
sS'IPR000845'
p60
I3652
sS'IPR000842'
p61
I1941
sS'IPR016241'
p62
I2121
sS'IPR017849'
p63
I834
sS'IPR000023'
p64
I1068
sS'IPR005124'
p65
I3042
sS'IPR017665'
p66
I1014
sS'IPR012984'
p67
I1992
sS'IPR012985'
p68
I2931
sS'IPR022023'
p69
I3377
sS'IPR012981'
p70
I2460
sS'IPR003008'
p71
I180
sS'IPR022024'
p72
I3991
sS'IPR012988'
p73
I333
sS'IPR012989'
p74
I2052
sS'IPR003000'
p75
I407
sS'IPR016643'
p76
I2457
sS'IPR016642'
p77
I1818
sS'IPR016641'
p78
I2532
sS'IPR023696'
p79
I112
sS'IPR008381'
p80
I3576
sS'IPR010122'
p81
I3348
sS'IPR013239'
p82
I3072
sS'IPR013238'
p83
I2102
sS'IPR007902'
p84
I2545
sS'IPR013234'
p85
I1741
sS'IPR007900'
p86
I3071
sS'IPR007901'
p87
I2496
sS'IPR005285'
p88
I1824
sS'IPR013233'
p89
I1491
sS'IPR017207'
p90
I3079
sS'IPR013697'
p91
I1263
sS'IPR013167'
p92
I3668
sS'IPR024964'
p93
I2710
sS'IPR022745'
p94
I2627
sS'IPR016635'
p95
I2077
sS'IPR013699'
p96
I2427
sS'IPR013698'
p97
I1777
sS'IPR001465'
p98
I1258
sS'IPR000449'
p99
I1858
sS'IPR015172'
p100
I2044
sS'IPR001461'
p101
I502
sS'IPR019761'
p102
I1586
sS'IPR000114'
p103
I2262
sS'IPR000115'
p104
I468
sS'IPR000447'
p105
I1704
sS'IPR001469'
p106
I3903
sS'IPR001468'
p107
I150
sS'IPR004806'
p108
I1860
sS'IPR003647'
p109
I206
sS'IPR019328'
p110
I3333
sS'IPR024763'
p111
I883
sS'IPR019591'
p112
I2788
sS'IPR019760'
p113
I1029
sS'IPR001865'
p114
I1949
sS'IPR000590'
p115
I3347
sS'IPR017065'
p116
I1925
sS'IPR000592'
p117
I2116
sS'IPR017067'
p118
I3610
sS'IPR000594'
p119
I1315
sS'IPR000597'
p120
I951
sS'IPR019049'
p121
I1791
sS'IPR001648'
p122
I2664
sS'IPR016460'
p123
I2829
sS'IPR013780'
p124
I712
sS'IPR013763'
p125
I914
sS'IPR013761'
p126
I1360
sS'IPR013760'
p127
I434
sS'IPR021083'
p128
I1794
sS'IPR021715'
p129
I3427
sS'IPR001645'
p130
I2117
sS'IPR008554'
p131
I3637
sS'IPR008551'
p132
I3201
sS'IPR025696'
p133
I2096
sS'IPR021713'
p134
I3186
sS'IPR025694'
p135
I1391
sS'IPR001882'
p136
I815
sS'IPR013565'
p137
I453
sS'IPR001884'
p138
I1137
sS'IPR021614'
p139
I2562
sS'IPR013566'
p140
I2608
sS'IPR004033'
p141
I3047
sS'IPR007872'
p142
I2978
sS'IPR004037'
p143
I1073
sS'IPR004036'
p144
I1670
sS'IPR000206'
p145
I3149
sS'IPR014006'
p146
I2949
sS'IPR000209'
p147
I641
sS'IPR004039'
p148
I1653
sS'IPR012301'
p149
I2128
sS'IPR011502'
p150
I2904
sS'IPR019327'
p151
I1508
sS'IPR012960'
p152
I1982
sS'IPR012961'
p153
I2095
sS'IPR012966'
p154
I2977
sS'IPR016424'
p155
I202
sS'IPR004589'
p156
I2081
sS'IPR011059'
p157
I1746
sS'IPR004583'
p158
I965
sS'IPR004582'
p159
I1862
sS'IPR004580'
p160
I796
sS'IPR019956'
p161
I362
sS'IPR019954'
p162
I360
sS'IPR004584'
p163
I878
sS'IPR001083'
p164
I1003
sS'IPR001085'
p165
I2246
sS'IPR001087'
p166
I2820
sS'IPR001086'
p167
I1761
sS'IPR021718'
p168
I3690
sS'IPR025183'
p169
I3855
sS'IPR015699'
p170
I808
sS'IPR025187'
p171
I3686
sS'IPR001248'
p172
I321
sS'IPR007708'
p173
I1386
sS'IPR008152'
p174
I2266
sS'IPR001241'
p175
I431
sS'IPR001240'
p176
I136
sS'IPR028945'
p177
I3160
sS'IPR025742'
p178
I2623
sS'IPR013921'
p179
I2045
sS'IPR004344'
p180
I2339
sS'IPR014009'
p181
I1843
sS'IPR004101'
p182
I2120
sS'IPR004100'
p183
I122
sS'IPR015505'
p184
I3707
sS'IPR024610'
p185
I2490
sS'IPR015507'
p186
I1492
sS'IPR011050'
p187
I2998
sS'IPR015500'
p188
I637
sS'IPR004108'
p189
I1357
sS'IPR008803'
p190
I4041
sS'IPR008806'
p191
I1730
sS'IPR022991'
p192
I949
sS'IPR022776'
p193
I3953
sS'IPR004367'
p194
I1394
sS'IPR005100'
p195
I1569
sS'IPR018150'
p196
I286
sS'IPR004361'
p197
I3074
sS'IPR018152'
p198
I77
sS'IPR019310'
p199
I4008
sS'IPR015324'
p200
I2149
sS'IPR019313'
p201
I1826
sS'IPR018793'
p202
I3424
sS'IPR004696'
p203
I1297
sS'IPR018791'
p204
I2345
sS'IPR028599'
p205
I3866
sS'IPR018794'
p206
I2213
sS'IPR016939'
p207
I2757
sS'IPR005185'
p208
I2854
sS'IPR009604'
p209
I3209
sS'IPR009600'
p210
I2818
sS'IPR007512'
p211
I4030
sS'IPR008570'
p212
I2980
sS'IPR008732'
p213
I777
sS'IPR008733'
p214
I3449
sS'IPR005343'
p215
I2619
sS'IPR005341'
p216
I2871
sS'IPR005612'
p217
I3716
sS'IPR017168'
p218
I1856
sS'IPR022357'
p219
I691
sS'IPR005349'
p220
I2975
sS'IPR004217'
p221
I35
sS'IPR023779'
p222
I1867
sS'IPR002347'
p223
I1829
sS'IPR023000'
p224
I610
sS'IPR002344'
p225
I1999
sS'IPR023005'
p226
I2124
sS'IPR027054'
p227
I2899
sS'IPR026051'
p228
I1063
sS'IPR005160'
p229
I1905
sS'IPR005161'
p230
I1906
sS'IPR002699'
p231
I1852
sS'IPR002698'
p232
I2694
sS'IPR005164'
p233
I1426
sS'IPR007518'
p234
I3147
sS'IPR008936'
p235
I1077
sS'IPR006886'
p236
I2188
sS'IPR006887'
p237
I2705
sS'IPR006880'
p238
I2698
sS'IPR008930'
p239
I1125
sS'IPR005624'
p240
I2349
sS'IPR011262'
p241
I547
sS'IPR018574'
p242
I3884
sS'IPR002931'
p243
I3439
sS'IPR018571'
p244
I3746
sS'IPR024687'
p245
I2751
sS'IPR005626'
p246
I198
sS'IPR002745'
p247
I3925
sS'IPR002744'
p248
I2505
sS'IPR023485'
p249
I2729
sS'IPR009044'
p250
I3339
sS'IPR023486'
p251
I1631
sS'IPR018978'
p252
I3789
sS'IPR023179'
p253
I2648
sS'IPR008027'
p254
I1302
sS'IPR018973'
p255
I3639
sS'IPR023174'
p256
I419
sS'IPR027124'
p257
I2379
sS'IPR005484'
p258
I1541
sS'IPR023170'
p259
I1276
sS'IPR023173'
p260
I1053
sS'IPR027277'
p261
I2895
sS'IPR020472'
p262
I558
sS'IPR028162'
p263
I1031
sS'IPR006085'
p264
I518
sS'IPR006086'
p265
I519
sS'IPR002995'
p266
I3235
sS'IPR002015'
p267
I1819
sS'IPR006083'
p268
I1562
sS'IPR020347'
p269
I2321
sS'IPR026791'
p270
I3703
sS'IPR021017'
p271
I3889
sS'IPR011190'
p272
I2734
sS'IPR018375'
p273
I821
sS'IPR018376'
p274
I1626
sS'IPR018370'
p275
I1161
sS'IPR003903'
p276
I2454
sS'IPR023391'
p277
I2074
sS'IPR023393'
p278
I3791
sS'IPR023392'
p279
I2076
sS'IPR023395'
p280
I6
sS'IPR023394'
p281
I811
sS'IPR005764'
p282
I3055
sS'IPR023398'
p283
I490
sS'IPR020615'
p284
I1572
sS'IPR003349'
p285
I2636
sS'IPR020617'
p286
I1575
sS'IPR020616'
p287
I1576
sS'IPR006264'
p288
I612
sS'IPR012946'
p289
I1289
sS'IPR020613'
p290
I1574
sS'IPR027474'
p291
I760
sS'IPR027475'
p292
I759
sS'IPR003342'
p293
I1675
sS'IPR027477'
p294
I1234
sS'IPR020618'
p295
I3874
sS'IPR014492'
p296
I1639
sS'IPR027473'
p297
I761
sS'IPR013824'
p298
I900
sS'IPR012948'
p299
I3752
sS'IPR013826'
p300
I901
sS'IPR011992'
p301
I8
sS'IPR011993'
p302
I828
sS'IPR011990'
p303
I461
sS'IPR011991'
p304
I634
sS'IPR020588'
p305
I1419
sS'IPR019363'
p306
I3717
sS'IPR018209'
p307
I91
sS'IPR011687'
p308
I3879
sS'IPR009083'
p309
I1872
sS'IPR011685'
p310
I3712
sS'IPR018201'
p311
I1131
sS'IPR018200'
p312
I1395
sS'IPR014012'
p313
I1271
sS'IPR018202'
p314
I108
sS'IPR014014'
p315
I406
sS'IPR018204'
p316
I146
sS'IPR014016'
p317
I892
sS'IPR014017'
p318
I891
sS'IPR011040'
p319
I1501
sS'IPR003833'
p320
I1804
sS'IPR011042'
p321
I372
sS'IPR020902'
p322
I1751
sS'IPR011044'
p323
I2700
sS'IPR020904'
p324
I2109
sS'IPR011047'
p325
I1520
sS'IPR002523'
p326
I2105
sS'IPR006861'
p327
I1070
sS'IPR006642'
p328
I2697
sS'IPR007849'
p329
I1117
sS'IPR002524'
p330
I1177
sS'IPR010935'
p331
I1956
sS'IPR020058'
p332
I909
sS'IPR009082'
p333
I2624
sS'IPR003124'
p334
I2256
sS'IPR020052'
p335
I685
sS'IPR003126'
p336
I1155
sS'IPR003120'
p337
I929
sS'IPR020056'
p338
I908
sS'IPR003123'
p339
I702
sS'IPR013918'
p340
I2341
sS'IPR014782'
p341
I1764
sS'IPR004562'
p342
I2945
sS'IPR014786'
p343
I3973
sS'IPR013910'
p344
I1158
sS'IPR013911'
p345
I1485
sS'IPR013914'
p346
I970
sS'IPR013915'
p347
I1799
sS'IPR013917'
p348
I3847
sS'IPR007599'
p349
I2367
sS'IPR023828'
p350
I640
sS'IPR023827'
p351
I638
sS'IPR007594'
p352
I2317
sS'IPR007590'
p353
I1603
sS'IPR023192'
p354
I2327
sS'IPR000903'
p355
I971
sS'IPR017117'
p356
I3812
sS'IPR010334'
p357
I3992
sS'IPR000905'
p358
I2198
sS'IPR000904'
p359
I809
sS'IPR010487'
p360
I2699
sS'IPR000909'
p361
I1753
sS'IPR023190'
p362
I2864
sS'IPR010482'
p363
I2358
sS'IPR010481'
p364
I830
sS'IPR001505'
p365
I64
sS'IPR017871'
p366
I697
sS'IPR017870'
p367
I3770
sS'IPR000059'
p368
I3994
sS'IPR000058'
p369
I3303
sS'IPR000054'
p370
I684
sS'IPR006973'
p371
I3513
sS'IPR000056'
p372
I2924
sS'IPR001509'
p373
I259
sS'IPR003010'
p374
I2479
sS'IPR014877'
p375
I1658
sS'IPR003016'
p376
I870
sS'IPR000692'
p377
I1023
sS'IPR001110'
p378
I2935
sS'IPR006515'
p379
I238
sS'IPR016654'
p380
I2312
sS'IPR002838'
p381
I2973
sS'IPR016656'
p382
I2204
sS'IPR016657'
p383
I2414
sS'IPR019529'
p384
I2842
sS'IPR016652'
p385
I2331
sS'IPR002830'
p386
I3454
sS'IPR002833'
p387
I2050
sS'IPR017119'
p388
I2444
sS'IPR019098'
p389
I2657
sS'IPR013226'
p390
I2491
sS'IPR013221'
p391
I2119
sS'IPR013176'
p392
I2347
sS'IPR013177'
p393
I1726
sS'IPR004345'
p394
I3961
sS'IPR013170'
p395
I3483
sS'IPR012178'
p396
I2415
sS'IPR001473'
p397
I1281
sS'IPR001474'
p398
I3087
sS'IPR011430'
p399
I2085
sS'IPR013178'
p400
I3769
sS'IPR024336'
p401
I3434
sS'IPR013712'
p402
I3697
sS'IPR000477'
p403
I204
sS'IPR007330'
p404
I3098
sS'IPR000473'
p405
I30
sS'IPR012882'
p406
I2201
sS'IPR003656'
p407
I3187
sS'IPR024576'
p408
I1493
sS'IPR001147'
p409
I3418
sS'IPR024571'
p410
I1765
sS'IPR003651'
p411
I3799
sS'IPR001636'
p412
I1564
sS'IPR001514'
p413
I546
sS'IPR009542'
p414
I2923
sS'IPR013717'
p415
I3549
sS'IPR013594'
p416
I2131
sS'IPR001876'
p417
I1870
sS'IPR000878'
p418
I1772
sS'IPR019095'
p419
I1839
sS'IPR000873'
p420
I543
sS'IPR000872'
p421
I3713
sS'IPR000870'
p422
I1086
sS'IPR001878'
p423
I688
sS'IPR000876'
p424
I724
sS'IPR016256'
p425
I1300
sS'IPR024598'
p426
I1154
sS'IPR001518'
p427
I1330
sS'IPR019039'
p428
I660
sS'IPR012310'
p429
I298
sS'IPR016326'
p430
I166
sS'IPR008506'
p431
I4046
sS'IPR022312'
p432
I1507
sS'IPR019034'
p433
I4010
sS'IPR001656'
p434
I3822
sS'IPR001650'
p435
I22
sS'IPR007356'
p436
I3959
sS'IPR001898'
p437
I1560
sS'IPR012080'
p438
I932
sS'IPR001892'
p439
I753
sS'IPR002652'
p440
I3432
sS'IPR001891'
p441
I2126
sS'IPR012089'
p442
I3122
sS'IPR001895'
p443
I300
sS'IPR017899'
p444
I3423
sS'IPR007199'
p445
I1305
sS'IPR000277'
p446
I376
sS'IPR008012'
p447
I2359
sS'IPR000271'
p448
I3591
sS'IPR000270'
p449
I826
sS'IPR006005'
p450
I3999
sS'IPR017896'
p451
I1255
sS'IPR026859'
p452
I3523
sS'IPR020119'
p453
I3823
sS'IPR016438'
p454
I2094
sS'IPR016439'
p455
I1607
sS'IPR012959'
p456
I3574
sS'IPR024111'
p457
I2070
sS'IPR012955'
p458
I2059
sS'IPR012954'
p459
I2867
sS'IPR013684'
p460
I2607
sS'IPR012952'
p461
I2675
sS'IPR007062'
p462
I2836
sS'IPR024368'
p463
I3010
sS'IPR019783'
p464
I2488
sS'IPR004598'
p465
I3446
sS'IPR019786'
p466
I2177
sS'IPR004595'
p467
I3603
sS'IPR012550'
p468
I3455
sS'IPR004591'
p469
I1303
sS'IPR001096'
p470
I3048
sS'IPR001094'
p471
I1050
sS'IPR009723'
p472
I2833
sS'IPR001098'
p473
I1028
sS'IPR001250'
p474
I1650
sS'IPR001251'
p475
I1383
sS'IPR001252'
p476
I1090
sS'IPR001253'
p477
I2548
sS'IPR015688'
p478
I1045
sS'IPR021216'
p479
I3331
sS'IPR003890'
p480
I2042
sS'IPR000305'
p481
I2377
sS'IPR004115'
p482
I993
sS'IPR000307'
p483
I3412
sS'IPR018814'
p484
I2936
sS'IPR011488'
p485
I1201
sS'IPR019818'
p486
I243
sS'IPR018810'
p487
I3853
sS'IPR018811'
p488
I3458
sS'IPR015518'
p489
I1882
sS'IPR015519'
p490
I2279
sS'IPR024602'
p491
I3200
sS'IPR015517'
p492
I412
sS'IPR019811'
p493
I1667
sS'IPR019810'
p494
I129
sS'IPR011082'
p495
I2485
sS'IPR020895'
p496
I3763
sS'IPR024604'
p497
I1886
sS'IPR025723'
p498
I2789
sS'IPR012901'
p499
I3322
sS'IPR022707'
p500
I1721
sS'IPR015049'
p501
I3708
sS'IPR008831'
p502
I2421
sS'IPR018146'
p503
I3073
sS'IPR011566'
p504
I2821
sS'IPR022708'
p505
I3127
sS'IPR008839'
p506
I3556
sS'IPR002474'
p507
I486
sS'IPR004680'
p508
I1448
sS'IPR019364'
p509
I2366
sS'IPR019495'
p510
I3292
sS'IPR001423'
p511
I3627
sS'IPR018789'
p512
I617
sS'IPR023026'
p513
I145
sS'IPR024636'
p514
I2502
sS'IPR004689'
p515
I695
sS'IPR018786'
p516
I3035
sS'IPR019369'
p517
I3164
sS'IPR019368'
p518
I3382
sS'IPR011872'
p519
I3036
sS'IPR012420'
p520
I2245
sS'IPR022757'
p521
I3606
sS'IPR021653'
p522
I2194
sS'IPR004205'
p523
I601
sS'IPR008584'
p524
I1532
sS'IPR021895'
p525
I1479
sS'IPR004202'
p526
I219
sS'IPR004203'
p527
I71
sS'IPR022716'
p528
I2029
sS'IPR002684'
p529
I1760
sS'IPR023011'
p530
I126
sS'IPR008901'
p531
I2363
sS'IPR005645'
p532
I2466
sS'IPR008905'
p533
I1789
sS'IPR004977'
p534
I669
sS'IPR018564'
p535
I1497
sS'IPR018565'
p536
I3682
sS'IPR022712'
p537
I3691
sS'IPR019561'
p538
I1968
sS'IPR019564'
p539
I3076
sS'IPR019769'
p540
I1138
sS'IPR002755'
p541
I778
sS'IPR005089'
p542
I1629
sS'IPR009056'
p543
I40
sS'IPR009057'
p544
I504
sS'IPR019763'
p545
I3416
sS'IPR019762'
p546
I1245
sS'IPR002759'
p547
I1590
sS'IPR009050'
p548
I2595
sS'IPR009051'
p549
I1254
sS'IPR022657'
p550
I579
sS'IPR005579'
p551
I3159
sS'IPR005578'
p552
I3278
sS'IPR028608'
p553
I3641
sS'IPR028606'
p554
I3828
sS'IPR005574'
p555
I1186
sS'IPR018966'
p556
I2888
sS'IPR023165'
p557
I990
sS'IPR005571'
p558
I1189
sS'IPR005570'
p559
I1195
sS'IPR023160'
p560
I3326
sS'IPR011856'
p561
I1062
sS'IPR006073'
p562
I1813
sS'IPR006075'
p563
I2033
sS'IPR006074'
p564
I2614
sS'IPR006076'
p565
I1705
sS'IPR028133'
p566
I2224
sS'IPR022652'
p567
I1610
sS'IPR028427'
p568
I1482
sS'IPR027104'
p569
I3480
sS'IPR014892'
p570
I1548
sS'IPR018240'
p571
I2293
sS'IPR011322'
p572
I85
sS'IPR018362'
p573
I417
sS'IPR020867'
p574
I471
sS'IPR022941'
p575
I1183
sS'IPR020861'
p576
I153
sS'IPR002358'
p577
I1953
sS'IPR002359'
p578
I335
sS'IPR005792'
p579
I1107
sS'IPR027105'
p580
I3058
sS'IPR025759'
p581
I3760
sS'IPR005798'
p582
I46
sS'IPR011006'
p583
I2540
sS'IPR020606'
p584
I1551
sS'IPR006214'
p585
I3029
sS'IPR027483'
p586
I2067
sS'IPR027482'
p587
I1207
sS'IPR020602'
p588
I3089
sS'IPR027484'
p589
I2068
sS'IPR002226'
p590
I383
sS'IPR027486'
p591
I2435
sS'IPR003337'
p592
I1687
sS'IPR006219'
p593
I979
sS'IPR020608'
p594
I1188
sS'IPR020609'
p595
I1191
sS'IPR020596'
p596
I2838
sS'IPR006184'
p597
I2442
sS'IPR016543'
p598
I2768
sS'IPR020592'
p599
I3413
sS'IPR020593'
p600
I3353
sS'IPR020590'
p601
I1012
sS'IPR020598'
p602
I2837
sS'IPR027640'
p603
I1074
sS'IPR007858'
p604
I3479
sS'IPR011417'
p605
I1998
sS'IPR019496'
p606
I3842
sS'IPR010036'
p607
I2685
sS'IPR007852'
p608
I3740
sS'IPR018211'
p609
I774
sS'IPR007854'
p610
I2900
sS'IPR010033'
p611
I2686
sS'IPR010031'
p612
I3343
sS'IPR011527'
p613
I698
sS'IPR011034'
p614
I1883
sS'IPR011037'
p615
I94
sS'IPR020537'
p616
I3356
sS'IPR006676'
p617
I1061
sS'IPR003021'
p618
I3037
sS'IPR011032'
p619
I54
sS'IPR027243'
p620
I1913
sS'IPR006856'
p621
I772
sS'IPR006855'
p622
I2735
sS'IPR027247'
p623
I1909
sS'IPR027246'
p624
I305
sS'IPR002409'
p625
I2606
sS'IPR006329'
p626
I994
sS'IPR013041'
p627
I1694
sS'IPR013562'
p628
I3310
sS'IPR007699'
p629
I3814
sS'IPR020045'
p630
I522
sS'IPR007109'
p631
I2216
sS'IPR020040'
p632
I336
sS'IPR013969'
p633
I2332
sS'IPR024969'
p634
I2890
sS'IPR013965'
p635
I3358
sS'IPR013964'
p636
I2111
sS'IPR013967'
p637
I1928
sS'IPR013966'
p638
I2195
sS'IPR013961'
p639
I3111
sS'IPR006694'
p640
I1732
sS'IPR013963'
p641
I2219
sS'IPR013962'
p642
I3198
sS'IPR002155'
p643
I1571
sS'IPR007587'
p644
I2190
sS'IPR007582'
p645
I2287
sS'IPR007583'
p646
I3579
sS'IPR010490'
p647
I3332
sS'IPR010491'
p648
I1151
sS'IPR010326'
p649
I1917
sS'IPR011419'
p650
I1277
sS'IPR026885'
p651
I3291
sS'IPR010329'
p652
I2960
sS'IPR011145'
p653
I3678
sS'IPR011146'
p654
I576
sS'IPR017865'
p655
I1605
sS'IPR014849'
p656
I2925
sS'IPR014848'
p657
I1065
sS'IPR017860'
p658
I2197
sS'IPR017861'
p659
I2196
sS'IPR000048'
p660
I625
sS'IPR020266'
p661
I2012
sS'IPR014843'
p662
I3733
sS'IPR014842'
p663
I1293
sS'IPR014841'
p664
I3565
sS'IPR014840'
p665
I3387
sS'IPR000043'
p666
I2632
sS'IPR014844'
p667
I3034
sS'IPR007034'
p668
I3753
sS'IPR024340'
p669
I3019
sS'IPR017380'
p670
I3938
sS'IPR000684'
p671
I223
sS'IPR022782'
p672
I2817
sS'IPR017383'
p673
I2381
sS'IPR000683'
p674
I254
sS'IPR002828'
p675
I2338
sS'IPR000569'
p676
I1971
sS'IPR002821'
p677
I1598
sS'IPR010929'
p678
I1825
sS'IPR013217'
p679
I3731
sS'IPR013215'
p680
I329
sS'IPR010920'
p681
I1339
sS'IPR017264'
p682
I36
sS'IPR000445'
p683
I1671
sS'IPR010926'
p684
I2122
sS'IPR022278'
p685
I1984
sS'IPR016130'
p686
I1407
sS'IPR016135'
p687
I375
sS'IPR016137'
p688
I842
sS'IPR023114'
p689
I2961
sS'IPR002884'
p690
I904
sS'IPR001406'
p691
I1663
sS'IPR001401'
p692
I1243
sS'IPR002885'
p693
I1798
sS'IPR026226'
p694
I2641
sS'IPR000462'
p695
I397
sS'IPR000465'
p696
I1609
sS'IPR000467'
p697
I3233
sS'IPR007320'
p698
I1403
sS'IPR003827'
p699
I3155
sS'IPR019175'
p700
I3060
sS'IPR026225'
p701
I2512
sS'IPR006590'
p702
I1184
sS'IPR024297'
p703
I2917
sS'IPR017081'
p704
I3538
sS'IPR024743'
p705
I2135
sS'IPR018099'
p706
I3651
sS'IPR024293'
p707
I2905
sS'IPR000860'
p708
I1620
sS'IPR021717'
p709
I2108
sS'IPR005140'
p710
I846
sS'IPR013783'
p711
I1854
sS'IPR021714'
p712
I2060
sS'IPR013785'
p713
I33
sS'IPR013786'
p714
I939
sS'IPR013194'
p715
I1321
sS'IPR019024'
p716
I3643
sS'IPR012308'
p717
I297
sS'IPR019021'
p718
I3685
sS'IPR003379'
p719
I819
sS'IPR001313'
p720
I1435
sS'IPR001312'
p721
I289
sS'IPR010684'
p722
I3293
sS'IPR008918'
p723
I520
sS'IPR012099'
p724
I3864
sS'IPR000266'
p725
I743
sS'IPR028896'
p726
I3002
sS'IPR000261'
p727
I1796
sS'IPR000268'
p728
I1285
sS'IPR021151'
p729
I2733
sS'IPR021150'
p730
I1241
sS'IPR013149'
p731
I56
sS'IPR013148'
p732
I106
sS'IPR024909'
p733
I3286
sS'IPR021157'
p734
I449
sS'IPR012947'
p735
I279
sS'IPR013143'
p736
I2655
sS'IPR001790'
p737
I322
sS'IPR001515'
p738
I2261
sS'IPR013586'
p739
I2656
sS'IPR019794'
p740
I73
sS'IPR019972'
p741
I733
sS'IPR019797'
p742
I1709
sS'IPR019974'
p743
I521
sS'IPR004567'
p744
I3582
sS'IPR019793'
p745
I74
sS'IPR019979'
p746
I744
sS'IPR016691'
p747
I3978
sS'IPR019798'
p748
I2247
sS'IPR012541'
p749
I3956
sS'IPR012235'
p750
I496
sS'IPR019150'
p751
I3142
sS'IPR019151'
p752
I2141
sS'IPR019156'
p753
I1443
sS'IPR018965'
p754
I1311
sS'IPR019154'
p755
I3337
sS'IPR001901'
p756
I2073
sS'IPR026070'
p757
I3374
sS'IPR001902'
p758
I2398
sS'IPR027059'
p759
I2898
sS'IPR027109'
p760
I3165
sS'IPR026851'
p761
I2515
sS'IPR025239'
p762
I3679
sS'IPR000319'
p763
I933
sS'IPR026854'
p764
I3776
sS'IPR001222'
p765
I510
sS'IPR000312'
p766
I533
sS'IPR000313'
p767
I3563
sS'IPR004167'
p768
I871
sS'IPR001229'
p769
I2752
sS'IPR018517'
p770
I3256
sS'IPR001905'
p771
I2714
sS'IPR025724'
p772
I687
sS'IPR007698'
p773
I2574
sS'IPR019808'
p774
I3063
sS'IPR019809'
p775
I172
sS'IPR025721'
p776
I2476
sS'IPR019804'
p777
I303
sS'IPR019805'
p778
I188
sS'IPR019807'
p779
I290
sS'IPR006595'
p780
I2708
sS'IPR015659'
p781
I643
sS'IPR019489'
p782
I1681
sS'IPR018171'
p783
I2529
sS'IPR018170'
p784
I946
sS'IPR024142'
p785
I2706
sS'IPR019481'
p786
I3963
sS'IPR026290'
p787
I3429
sS'IPR015655'
p788
I1528
sS'IPR004308'
p789
I1779
sS'IPR019487'
p790
I3835
sS'IPR009668'
p791
I3378
sS'IPR019371'
p792
I3148
sS'IPR001138'
p793
I251
sS'IPR010073'
p794
I2564
sS'IPR001131'
p795
I2674
sS'IPR001130'
p796
I2048
sS'IPR019821'
p797
I1076
sS'IPR005365'
p798
I2448
sS'IPR008220'
p799
I584
sS'IPR008594'
p800
I3677
sS'IPR025653'
p801
I1378
sS'IPR025651'
p802
I3529
sS'IPR025656'
p803
I3462
sS'IPR025654'
p804
I3640
sS'IPR025655'
p805
I3130
sS'IPR023027'
p806
I713
sS'IPR005141'
p807
I847
sS'IPR005144'
p808
I1239
sS'IPR005145'
p809
I1833
sS'IPR005146'
p810
I1018
sS'IPR005147'
p811
I1019
sS'IPR008914'
p812
I959
sS'IPR024585'
p813
I1844
sS'IPR008913'
p814
I2161
sS'IPR004789'
p815
I1499
sS'IPR004788'
p816
I3909
sS'IPR022398'
p817
I639
sS'IPR009060'
p818
I1251
sS'IPR006225'
p819
I3877
sS'IPR019576'
p820
I2273
sS'IPR002208'
p821
I1966
sS'IPR019572'
p822
I1317
sS'IPR009061'
p823
I1020
sS'IPR019779'
p824
I575
sS'IPR018422'
p825
I3555
sS'IPR019772'
p826
I1056
sS'IPR005097'
p827
I2575
sS'IPR019770'
p828
I489
sS'IPR009068'
p829
I357
sS'IPR019775'
p830
I556
sS'IPR023621'
p831
I686
sS'IPR023152'
p832
I1129
sS'IPR027106'
p833
I1172
sS'IPR001763'
p834
I1369
sS'IPR008040'
p835
I1600
sS'IPR023626'
p836
I269
sS'IPR018999'
p837
I1654
sS'IPR027108'
p838
I1149
sS'IPR009069'
p839
I2497
sS'IPR006062'
p840
I2015
sS'IPR009088'
p841
I1873
sS'IPR019771'
p842
I928
sS'IPR002035'
p843
I997
sS'IPR002034'
p844
I399
sS'IPR012762'
p845
I3648
sS'IPR023441'
p846
I263
sS'IPR009080'
p847
I156
sS'IPR006068'
p848
I930
sS'IPR023442'
p849
I262
sS'IPR028417'
p850
I1096
sS'IPR028143'
p851
I2676
sS'IPR018359'
p852
I1270
sS'IPR025697'
p853
I3503
sS'IPR022554'
p854
I2670
sS'IPR006994'
p855
I3635
sS'IPR006995'
p856
I3366
sS'IPR018357'
p857
I2802
sS'IPR028386'
p858
I2090
sS'IPR018199'
p859
I725
sS'IPR018198'
p860
I84
sS'IPR011330'
p861
I1334
sS'IPR020850'
p862
I1244
sS'IPR022955'
p863
I2411
sS'IPR020855'
p864
I111
sS'IPR011335'
p865
I421
sS'IPR017597'
p866
I1043
sS'IPR027078'
p867
I3936
sS'IPR027079'
p868
I1876
sS'IPR023150'
p869
I1684
sS'IPR009401'
p870
I2555
sS'IPR002328'
p871
I53
sS'IPR002327'
p872
I39
sS'IPR027073'
p873
I1291
sS'IPR002320'
p874
I284
sS'IPR003156'
p875
I2797
sS'IPR006206'
p876
I245
sS'IPR006204'
p877
I249
sS'IPR006203'
p878
I247
sS'IPR000868'
p879
I3157
sS'IPR027499'
p880
I3195
sS'IPR002259'
p881
I1672
sS'IPR003323'
p882
I2450
sS'IPR027652'
p883
I1988
sS'IPR006195'
p884
I283
sS'IPR021648'
p885
I3738
sS'IPR028565'
p886
I1513
sS'IPR013258'
p887
I3632
sS'IPR000704'
p888
I2552
sS'IPR003819'
p889
I1343
sS'IPR025799'
p890
I2270
sS'IPR018731'
p891
I3724
sS'IPR018228'
p892
I1745
sS'IPR011531'
p893
I3275
sS'IPR018225'
p894
I992
sS'IPR028094'
p895
I3285
sS'IPR018223'
p896
I1329
sS'IPR007823'
p897
I2560
sS'IPR003817'
p898
I2578
sS'IPR006840'
p899
I1864
sS'IPR020925'
p900
I349
sS'IPR011025'
p901
I606
sS'IPR011022'
p902
I2185
sS'IPR006845'
p903
I1898
sS'IPR006846'
p904
I723
sS'IPR006847'
p905
I1399
sS'IPR005857'
p906
I1836
sS'IPR006849'
p907
I3742
sS'IPR020929'
p908
I675
sS'IPR007137'
p909
I1446
sS'IPR003495'
p910
I3261
sS'IPR007135'
p911
I2725
sS'IPR001383'
p912
I2230
sS'IPR007133'
p913
I2392
sS'IPR007131'
p914
I1887
sS'IPR020708'
p915
I1193
sS'IPR006330'
p916
I3307
sS'IPR022100'
p917
I3388
sS'IPR000164'
p918
I2125
sS'IPR006689'
p919
I813
sS'IPR024662'
p920
I1940
sS'IPR013979'
p921
I373
sS'IPR006066'
p922
I2991
sS'IPR006680'
p923
I1748
sS'IPR013970'
p924
I1549
sS'IPR027310'
p925
I513
sS'IPR027040'
p926
I2536
sS'IPR001380'
p927
I2711
sS'IPR017147'
p928
I3007
sS'IPR002889'
p929
I2446
sS'IPR009081'
p930
I542
sS'IPR011159'
p931
I1544
sS'IPR028144'
p932
I3486
sS'IPR000701'
p933
I2010
sS'IPR020630'
p934
I474
sS'IPR020636'
p935
I1318
sS'IPR003788'
p936
I2146
sS'IPR003789'
p937
I2031
sS'IPR007009'
p938
I2755
sS'IPR002784'
p939
I2176
sS'IPR000077'
p940
I267
sS'IPR003780'
p941
I2689
sS'IPR003782'
p942
I1375
sS'IPR014857'
p943
I3783
sS'IPR014851'
p944
I1914
sS'IPR007557'
p945
I3085
sS'IPR000672'
p946
I472
sS'IPR000679'
p947
I627
sS'IPR024359'
p948
I2604
sS'IPR002815'
p949
I1341
sS'IPR002813'
p950
I3608
sS'IPR024185'
p951
I2695
sS'IPR007955'
p952
I2382
sS'IPR017252'
p953
I2630
sS'IPR007484'
p954
I2252
sS'IPR007482'
p955
I2801
sS'IPR013203'
p956
I598
sS'IPR012965'
p957
I1228
sS'IPR013209'
p958
I1822
sS'IPR010776'
p959
I3158
sS'IPR016123'
p960
I2970
sS'IPR016692'
p961
I2158
sS'IPR016694'
p962
I2160
sS'IPR001412'
p963
I155
sS'IPR000415'
p964
I2242
sS'IPR003358'
p965
I3857
sS'IPR007319'
p966
I3666
sS'IPR007318'
p967
I324
sS'IPR003674'
p968
I2579
sS'IPR007316'
p969
I2835
sS'IPR007315'
p970
I2323
sS'IPR024758'
p971
I3506
sS'IPR029008'
p972
I3969
sS'IPR008962'
p973
I2683
sS'IPR000783'
p974
I1190
sS'IPR013887'
p975
I3755
sS'IPR004625'
p976
I2639
sS'IPR000789'
p977
I1204
sS'IPR000788'
p978
I1237
sS'IPR000892'
p979
I2628
sS'IPR000897'
p980
I1180
sS'IPR017449'
p981
I2437
sS'IPR000898'
p982
I2972
sS'IPR016346'
p983
I1122
sS'IPR011332'
p984
I361
sS'IPR022197'
p985
I1111
sS'IPR016340'
p986
I943
sS'IPR016341'
p987
I1280
sS'IPR013881'
p988
I3482
sS'IPR000529'
p989
I1618
sS'IPR028889'
p990
I1396
sS'IPR001300'
p991
I3519
sS'IPR022953'
p992
I1069
sS'IPR022192'
p993
I1834
sS'IPR001305'
p994
I1423
sS'IPR001308'
p995
I3982
sS'IPR000257'
p996
I1728
sS'IPR028885'
p997
I2495
sS'IPR021384'
p998
I3001
sS'IPR021386'
p999
I2544
sS'IPR011442'
p1000
I3105
sS'IPR003923'
p1001
I3869
sS'IPR000095'
p1002
I2470
sS'IPR012935'
p1003
I3512
sS'IPR012936'
p1004
I2613
sS'IPR009737'
p1005
I2351
sS'IPR021148'
p1006
I3851
sS'IPR013889'
p1007
I1802
sS'IPR021418'
p1008
I3243
sS'IPR001783'
p1009
I2290
sS'IPR001780'
p1010
I345
sS'IPR001781'
p1011
I2098
sS'IPR004572'
p1012
I2652
sS'IPR018192'
p1013
I1472
sS'IPR004577'
p1014
I3236
sS'IPR004575'
p1015
I3472
sS'IPR004579'
p1016
I439
sS'IPR025390'
p1017
I3862
sS'IPR019167'
p1018
I1527
sS'IPR019166'
p1019
I3068
sS'IPR019165'
p1020
I3258
sS'IPR019160'
p1021
I1987
sS'IPR025718'
p1022
I2404
sS'IPR026846'
p1023
I2419
sS'IPR025752'
p1024
I2617
sS'IPR004179'
p1025
I984
sS'IPR004176'
p1026
I1685
sS'IPR000326'
p1027
I1355
sS'IPR026849'
p1028
I3289
sS'IPR000322'
p1029
I2288
sS'IPR024621'
p1030
I2364
sS'IPR015820'
p1031
I19
sS'IPR027815'
p1032
I3491
sS'IPR024624'
p1033
I3170
sS'IPR015824'
p1034
I97
sS'IPR005178'
p1035
I2202
sS'IPR024629'
p1036
I3725
sS'IPR012337'
p1037
I16
sS'IPR012336'
p1038
I1102
sS'IPR012846'
p1039
I537
sS'IPR018164'
p1040
I2798
sS'IPR018165'
p1041
I2796
sS'IPR018166'
p1042
I1218
sS'IPR018167'
p1043
I1217
sS'IPR001339'
p1044
I3380
sS'IPR018162'
p1045
I2795
sS'IPR018163'
p1046
I280
sS'IPR026285'
p1047
I1449
sS'IPR002735'
p1048
I630
sS'IPR018168'
p1049
I3224
sS'IPR018767'
p1050
I2461
sS'IPR024722'
p1051
I2493
sS'IPR009674'
p1052
I1284
sS'IPR013641'
p1053
I2065
sS'IPR028146'
p1054
I3622
sS'IPR016900'
p1055
I3065
sS'IPR001128'
p1056
I780
sS'IPR002326'
p1057
I448
sS'IPR005314'
p1058
I3451
sS'IPR005317'
p1059
I3804
sS'IPR001126'
p1060
I869
sS'IPR015795'
p1061
I92
sS'IPR015797'
p1062
I1016
sS'IPR008217'
p1063
I3000
sS'IPR004776'
p1064
I2394
sS'IPR003691'
p1065
I3839
sS'IPR021569'
p1066
I3340
sS'IPR008210'
p1067
I806
sS'IPR015221'
p1068
I2785
sS'IPR015222'
p1069
I3183
sS'IPR025888'
p1070
I1638
sS'IPR025662'
p1071
I3865
sS'IPR008218'
p1072
I2588
sS'IPR005135'
p1073
I1510
sS'IPR004408'
p1074
I3021
sS'IPR003694'
p1075
I2478
sS'IPR022039'
p1076
I2799
sS'IPR004403'
p1077
I845
sS'IPR003695'
p1078
I1850
sS'IPR005139'
p1079
I1655
sS'IPR022031'
p1080
I1645
sS'IPR022030'
p1081
I1801
sS'IPR018506'
p1082
I48
sS'IPR018507'
p1083
I1897
sS'IPR022812'
p1084
I1242
sS'IPR019585'
p1085
I3669
sS'IPR011236'
p1086
I3106
sS'IPR015007'
p1087
I1790
sS'IPR004790'
p1088
I1264
sS'IPR014805'
p1089
I1946
sS'IPR018508'
p1090
I609
sS'IPR009075'
p1091
I936
sS'IPR009076'
p1092
I1841
sS'IPR003750'
p1093
I3234
sS'IPR009071'
p1094
I835
sS'IPR009072'
p1095
I170
sS'IPR009073'
p1096
I3162
sS'IPR007379'
p1097
I3397
sS'IPR009078'
p1098
I666
sS'IPR025210'
p1099
I3461
sS'IPR019741'
p1100
I246
sS'IPR019740'
p1101
I2272
sS'IPR018982'
p1102
I2079
sS'IPR023633'
p1103
I2277
sS'IPR028626'
p1104
I678
sS'IPR023631'
p1105
I1325
sS'IPR005225'
p1106
I165
sS'IPR005556'
p1107
I2199
sS'IPR005554'
p1108
I3190
sS'IPR018807'
p1109
I2353
sS'IPR023638'
p1110
I764
sS'IPR007075'
p1111
I228
sS'IPR008675'
p1112
I168
sS'IPR008676'
p1113
I3970
sS'IPR027711'
p1114
I3989
sS'IPR002791'
p1115
I3572
sS'IPR002020'
p1116
I128
sS'IPR004888'
p1117
I3101
sS'IPR018805'
p1118
I2354
sS'IPR006050'
p1119
I314
sS'IPR002028'
p1120
I148
sS'IPR009091'
p1121
I1262
sS'IPR005045'
p1122
I1535
sS'IPR009097'
p1123
I3221
sS'IPR023473'
p1124
I3858
sS'IPR006058'
p1125
I1253
sS'IPR016117'
p1126
I3609
sS'IPR018349'
p1127
I2301
sS'IPR018809'
p1128
I3230
sS'IPR020845'
p1129
I541
sS'IPR018188'
p1130
I3445
sS'IPR018189'
p1131
I876
sS'IPR024738'
p1132
I3875
sS'IPR018181'
p1133
I645
sS'IPR020848'
p1134
I2319
sS'IPR025969'
p1135
I2482
sS'IPR023582'
p1136
I1522
sS'IPR029033'
p1137
I101
sS'IPR027005'
p1138
I1673
sS'IPR023031'
p1139
I913
sS'IPR001995'
p1140
I2690
sS'IPR018095'
p1141
I99
sS'IPR018983'
p1142
I3567
sS'IPR006130'
p1143
I318
sS'IPR005910'
p1144
I3443
sS'IPR026712'
p1145
I1202
sS'IPR013218'
p1146
I2791
sS'IPR004443'
p1147
I2642
sS'IPR018230'
p1148
I1433
sS'IPR014042'
p1149
I3801
sS'IPR018232'
p1150
I1735
sS'IPR028083'
p1151
I1366
sS'IPR018234'
p1152
I3088
sS'IPR018236'
p1153
I1563
sS'IPR014044'
p1154
I2181
sS'IPR011013'
p1155
I257
sS'IPR011012'
p1156
I1295
sS'IPR007834'
p1157
I38
sS'IPR011010'
p1158
I197
sS'IPR020934'
p1159
I3264
sS'IPR011016'
p1160
I2722
sS'IPR021772'
p1161
I4036
sS'IPR006838'
p1162
I2510
sS'IPR009305'
p1163
I1434
sS'IPR018098'
p1164
I722
sS'IPR016072'
p1165
I3092
sS'IPR027539'
p1166
I1110
sS'IPR013942'
p1167
I1408
sS'IPR013941'
p1168
I3077
sS'IPR013940'
p1169
I2765
sS'IPR013947'
p1170
I1140
sS'IPR013946'
p1171
I3949
sS'IPR013945'
p1172
I3528
sS'IPR011546'
p1173
I2622
sS'IPR013949'
p1174
I3406
sS'IPR013948'
p1175
I3141
sS'IPR027535'
p1176
I603
sS'IPR027537'
p1177
I2822
sS'IPR027536'
p1178
I3121
sS'IPR010308'
p1179
I2605
sS'IPR010309'
p1180
I3467
sS'IPR000804'
p1181
I2078
sS'IPR019258'
p1182
I3942
sS'IPR010301'
p1183
I2072
sS'IPR009400'
p1184
I4015
sS'IPR020628'
p1185
I470
sS'IPR007632'
p1186
I2336
sS'IPR006941'
p1187
I2580
sS'IPR006940'
p1188
I2720
sS'IPR007638'
p1189
I911
sS'IPR007639'
p1190
I910
sS'IPR001328'
p1191
I2528
sS'IPR000292'
p1192
I2453
sS'IPR007018'
p1193
I2468
sS'IPR000061'
p1194
I1800
sS'IPR007014'
p1195
I1113
sS'IPR003042'
p1196
I1778
sS'IPR012923'
p1197
I3599
sS'IPR007012'
p1198
I1642
sS'IPR006926'
p1199
I3478
sS'IPR021196'
p1200
I2875
sS'IPR020153'
p1201
I4026
sS'IPR021950'
p1202
I3084
sS'IPR000669'
p1203
I715
sS'IPR004695'
p1204
I2852
sS'IPR005846'
p1205
I2003
sS'IPR027998'
p1206
I3633
sS'IPR014768'
p1207
I2742
sS'IPR002139'
p1208
I1425
sS'IPR002809'
p1209
I2140
sS'IPR007946'
p1210
I1737
sS'IPR013896'
p1211
I426
sS'IPR017240'
p1212
I1469
sS'IPR013890'
p1213
I1060
sS'IPR013892'
p1214
I2154
sS'IPR007120'
p1215
I590
sS'IPR014222'
p1216
I67
sS'IPR010760'
p1217
I3368
sS'IPR015285'
p1218
I2704
sS'IPR013899'
p1219
I3846
sS'IPR001289'
p1220
I416
sS'IPR007949'
p1221
I3219
sS'IPR001931'
p1222
I671
sS'IPR001930'
p1223
I1763
sS'IPR001932'
p1224
I619
sS'IPR001937'
p1225
I574
sS'IPR001424'
p1226
I78
sS'IPR011021'
p1227
I2025
sS'IPR011387'
p1228
I3184
sS'IPR000406'
p1229
I3972
sS'IPR002130'
p1230
I978
sS'IPR025527'
p1231
I3469
sS'IPR007304'
p1232
I3573
sS'IPR007305'
p1233
I2297
sS'IPR007306'
p1234
I1372
sS'IPR007307'
p1235
I2037
sS'IPR003689'
p1236
I1901
sS'IPR007309'
p1237
I2040
sS'IPR020514'
p1238
I3030
sS'IPR000408'
p1239
I1261
sS'IPR000409'
p1240
I1444
sS'IPR000796'
p1241
I1358
sS'IPR029028'
p1242
I1413
sS'IPR000795'
p1243
I190
sS'IPR013099'
p1244
I2718
sS'IPR000793'
p1245
I123
sS'IPR000791'
p1246
I1502
sS'IPR029021'
p1247
I1405
sS'IPR029020'
p1248
I2716
sS'IPR003445'
p1249
I863
sS'IPR003440'
p1250
I2417
sS'IPR000883'
p1251
I61
sS'IPR000889'
p1252
I2129
sS'IPR011234'
p1253
I3299
sS'IPR019005'
p1254
I3924
sS'IPR001684'
p1255
I864
sS'IPR001683'
p1256
I1637
sS'IPR019002'
p1257
I2647
sS'IPR001680'
p1258
I554
sS'IPR016573'
p1259
I1167
sS'IPR004953'
p1260
I2654
sS'IPR019009'
p1261
I2150
sS'IPR001017'
p1262
I1044
sS'IPR013525'
p1263
I1457
sS'IPR007134'
p1264
I2724
sS'IPR001014'
p1265
I264
sS'IPR001331'
p1266
I829
sS'IPR001330'
p1267
I1126
sS'IPR000533'
p1268
I1092
sS'IPR000530'
p1269
I3040
sS'IPR000537'
p1270
I1247
sS'IPR000534'
p1271
I931
sS'IPR012472'
p1272
I3886
sS'IPR000089'
p1273
I817
sS'IPR003492'
p1274
I2940
sS'IPR019409'
p1275
I3674
sS'IPR024528'
p1276
I2870
sS'IPR007130'
p1277
I3826
sS'IPR024435'
p1278
I1010
sS'IPR024926'
p1279
I3440
sS'IPR012920'
p1280
I1494
sS'IPR024388'
p1281
I1307
sS'IPR024929'
p1282
I3267
sS'IPR024928'
p1283
I2629
sS'IPR012929'
p1284
I2746
sS'IPR004097'
p1285
I2431
sS'IPR021605'
p1286
I2586
sS'IPR005344'
p1287
I3902
sS'IPR004541'
p1288
I193
sS'IPR004540'
p1289
I1402
sS'IPR019171'
p1290
I2294
sS'IPR005345'
p1291
I3748
sS'IPR004098'
p1292
I2007
sS'IPR011068'
p1293
I1640
sS'IPR001209'
p1294
I787
sS'IPR001208'
p1295
I1380
sS'IPR001202'
p1296
I1326
sS'IPR001753'
p1297
I1627
sS'IPR001752'
p1298
I1075
sS'IPR008688'
p1299
I326
sS'IPR008689'
p1300
I1661
sS'IPR001757'
p1301
I312
sS'IPR001204'
p1302
I2401
sS'IPR008442'
p1303
I109
sS'IPR004140'
p1304
I1146
sS'IPR026873'
p1305
I1179
sS'IPR026872'
p1306
I1266
sS'IPR026983'
p1307
I2130
sS'IPR024657'
p1308
I2501
sS'IPR015813'
p1309
I93
sS'IPR024650'
p1310
I4023
sS'IPR021771'
p1311
I2222
sS'IPR005615'
p1312
I3800
sS'IPR002695'
p1313
I2257
sS'IPR021163'
p1314
I3012
sS'IPR015679'
p1315
I2193
sS'IPR019357'
p1316
I4012
sS'IPR019350'
p1317
I1884
sS'IPR022793'
p1318
I2313
sS'IPR021917'
p1319
I2753
sS'IPR023167'
p1320
I1157
sS'IPR007248'
p1321
I3720
sS'IPR006003'
p1322
I3590
sS'IPR023576'
p1323
I3046
sS'IPR018130'
p1324
I1950
sS'IPR001117'
p1325
I2568
sS'IPR005304'
p1326
I3694
sS'IPR001114'
p1327
I3361
sS'IPR024420'
p1328
I2911
sS'IPR005301'
p1329
I2754
sS'IPR021591'
p1330
I4018
sS'IPR005162'
p1331
I3905
sS'IPR007209'
p1332
I3464
sS'IPR015257'
p1333
I2848
sS'IPR001848'
p1334
I2433
sS'IPR026015'
p1335
I650
sS'IPR026017'
p1336
I2291
sS'IPR028058'
p1337
I2770
sS'IPR005122'
p1338
I885
sS'IPR026010'
p1339
I987
sS'IPR005120'
p1340
I3016
sS'IPR005121'
p1341
I571
sS'IPR005940'
p1342
I534
sS'IPR023282'
p1343
I860
sS'IPR023280'
p1344
I1313
sS'IPR002129'
p1345
I3615
sS'IPR005946'
p1346
I1942
sS'IPR022803'
p1347
I676
sS'IPR022801'
p1348
I11
sS'IPR011516'
p1349
I3816
sS'IPR016240'
p1350
I1615
sS'IPR021827'
p1351
I2950
sS'IPR025875'
p1352
I623
sS'IPR016808'
p1353
I3815
sS'IPR019752'
p1354
I2599
sS'IPR019756'
p1355
I1006
sS'IPR019757'
p1356
I1613
sS'IPR019758'
p1357
I1005
sS'IPR019759'
p1358
I1008
sS'IPR016806'
p1359
I3540
sS'IPR004328'
p1360
I3038
sS'IPR023603'
p1361
I2253
sS'IPR023601'
p1362
I2445
sS'IPR004895'
p1363
I3253
sS'IPR008847'
p1364
I1417
sS'IPR004327'
p1365
I2745
sS'IPR005549'
p1366
I2034
sS'IPR002016'
p1367
I76
sS'IPR028161'
p1368
I1030
sS'IPR002013'
p1369
I1744
sS'IPR023468'
p1370
I3515
sS'IPR005052'
p1371
I2200
sS'IPR023465'
p1372
I3516
sS'IPR003874'
p1373
I3790
sS'IPR017107'
p1374
I3867
sS'IPR028360'
p1375
I1614
sS'IPR012349'
p1376
I2164
sS'IPR028364'
p1377
I735
sS'IPR023198'
p1378
I2465
sS'IPR023194'
p1379
I3646
sS'IPR023193'
p1380
I608
sS'IPR015033'
p1381
I1869
sS'IPR004083'
p1382
I2525
sS'IPR002490'
p1383
I1817
sS'IPR002496'
p1384
I116
sS'IPR002495'
p1385
I2203
sS'IPR027387'
p1386
I47
sS'IPR002498'
p1387
I2066
sS'IPR002303'
p1388
I548
sS'IPR002650'
p1389
I604
sS'IPR002301'
p1390
I647
sS'IPR002300'
p1391
I550
sS'IPR002655'
p1392
I940
sS'IPR002305'
p1393
I288
sS'IPR018479'
p1394
I3551
sS'IPR023041'
p1395
I3944
sS'IPR011254'
p1396
I2943
sS'IPR027011'
p1397
I2281
sS'IPR020541'
p1398
I1617
sS'IPR015877'
p1399
I3473
sS'IPR020546'
p1400
I3904
sS'IPR002471'
p1401
I1127
sS'IPR020548'
p1402
I636
sS'IPR007286'
p1403
I3739
sS'IPR020893'
p1404
I218
sS'IPR020892'
p1405
I977
sS'IPR006577'
p1406
I3918
sS'IPR014774'
p1407
I2556
sS'IPR024318'
p1408
I3811
sS'IPR008828'
p1409
I3808
sS'IPR026532'
p1410
I3807
sS'IPR018244'
p1411
I2180
sS'IPR018247'
p1412
I5
sS'IPR018246'
p1413
I1336
sS'IPR007807'
p1414
I3309
sS'IPR011009'
p1415
I87
sS'IPR018483'
p1416
I1700
sS'IPR001664'
p1417
I1678
sS'IPR011004'
p1418
I629
sS'IPR003877'
p1419
I1725
sS'IPR013599'
p1420
I1608
sS'IPR007808'
p1421
I2147
sS'IPR020940'
p1422
I428
sS'IPR014770'
p1423
I3833
sS'IPR013746'
p1424
I3349
sS'IPR006822'
p1425
I2764
sS'IPR009332'
p1426
I1827
sS'IPR006828'
p1427
I1830
sS'IPR020097'
p1428
I1665
sS'IPR006317'
p1429
I568
sS'IPR001662'
p1430
I1646
sS'IPR006571'
p1431
I3845
sS'IPR006976'
p1432
I4009
sS'IPR013954'
p1433
I3521
sS'IPR013955'
p1434
I1304
sS'IPR013956'
p1435
I3756
sS'IPR013950'
p1436
I3894
sS'IPR013951'
p1437
I3757
sS'IPR013952'
p1438
I1890
sS'IPR013953'
p1439
I1807
sS'IPR028211'
p1440
I2186
sS'IPR004143'
p1441
I2946
sS'IPR027520'
p1442
I2378
sS'IPR027521'
p1443
I3915
sS'IPR013958'
p1444
I3923
sS'IPR013959'
p1445
I3359
sS'IPR028217'
p1446
I3660
sS'IPR027525'
p1447
I2713
sS'IPR024977'
p1448
I3594
sS'IPR017437'
p1449
I1231
sS'IPR017435'
p1450
I4031
sS'IPR011043'
p1451
I2603
sS'IPR017438'
p1452
I1232
sS'IPR010371'
p1453
I2348
sS'IPR014854'
p1454
I2873
sS'IPR006958'
p1455
I803
sS'IPR023267'
p1456
I2315
sS'IPR016087'
p1457
I2535
sS'IPR006224'
p1458
I3208
sS'IPR006953'
p1459
I1468
sS'IPR026874'
p1460
I3619
sS'IPR006222'
p1461
I3003
sS'IPR006955'
p1462
I1467
sS'IPR017969'
p1463
I2424
sS'IPR007577'
p1464
I1689
sS'IPR001197'
p1465
I2824
sS'IPR020164'
p1466
I2953
sS'IPR006067'
p1467
I2993
sS'IPR023175'
p1468
I3693
sS'IPR006555'
p1469
I440
sS'IPR000652'
p1470
I152
sS'IPR000651'
p1471
I301
sS'IPR018972'
p1472
I3892
sS'IPR000659'
p1473
I2271
sS'IPR020366'
p1474
I2677
sS'IPR002876'
p1475
I3171
sS'IPR002871'
p1476
I3453
sS'IPR022408'
p1477
I1690
sS'IPR009286'
p1478
I3729
sS'IPR013886'
p1479
I1536
sS'IPR000222'
p1480
I2049
sS'IPR010971'
p1481
I3225
sS'IPR013883'
p1482
I3761
sS'IPR013880'
p1483
I4020
sS'IPR000223'
p1484
I1612
sS'IPR010979'
p1485
I755
sS'IPR010978'
p1486
I532
sS'IPR007151'
p1487
I2954
sS'IPR007150'
p1488
I3411
sS'IPR013888'
p1489
I3425
sS'IPR010750'
p1490
I1478
sS'IPR000439'
p1491
I348
sS'IPR001926'
p1492
I142
sS'IPR001431'
p1493
I485
sS'IPR001195'
p1494
I3916
sS'IPR001433'
p1495
I1054
sS'IPR000433'
p1496
I2894
sS'IPR000432'
p1497
I1427
sS'IPR006165'
p1498
I1902
sS'IPR027180'
p1499
I3185
sS'IPR025305'
p1500
I3389
sS'IPR003692'
p1501
I1599
sS'IPR010998'
p1502
I196
sS'IPR004506'
p1503
I3880
sS'IPR006906'
p1504
I3276
sS'IPR007371'
p1505
I2093
sS'IPR007373'
p1506
I2091
sS'IPR017298'
p1507
I1345
sS'IPR003698'
p1508
I1934
sS'IPR010995'
p1509
I1475
sS'IPR010994'
p1510
I422
sS'IPR010997'
p1511
I1185
sS'IPR010996'
p1512
I1505
sS'IPR002908'
p1513
I3762
sS'IPR029039'
p1514
I1052
sS'IPR013088'
p1515
I628
sS'IPR029032'
p1516
I2983
sS'IPR013087'
p1517
I476
sS'IPR029030'
p1518
I3820
sS'IPR013085'
p1519
I3656
sS'IPR002905'
p1520
I1017
sS'IPR013083'
p1521
I793
sS'IPR029035'
p1522
I392
sS'IPR016210'
p1523
I1983
sS'IPR003171'
p1524
I2903
sS'IPR002355'
p1525
I2567
sS'IPR013523'
p1526
I3940
sS'IPR013315'
p1527
I1892
sS'IPR012170'
p1528
I3602
sS'IPR017340'
p1529
I3655
sS'IPR021867'
p1530
I2350
sS'IPR015415'
p1531
I3099
sS'IPR016563'
p1532
I2022
sS'IPR001326'
p1533
I1775
sS'IPR001327'
p1534
I656
sS'IPR013536'
p1535
I2509
sS'IPR013537'
p1536
I1933
sS'IPR013535'
p1537
I2138
sS'IPR000509'
p1538
I29
sS'IPR000506'
p1539
I388
sS'IPR007203'
p1540
I3181
sS'IPR027370'
p1541
I3990
sS'IPR007205'
p1542
I3013
sS'IPR007204'
p1543
I3659
sS'IPR007207'
p1544
I370
sS'IPR007206'
p1545
I3014
sS'IPR012919'
p1546
I2952
sS'IPR008009'
p1547
I2551
sS'IPR012917'
p1548
I2103
sS'IPR024391'
p1549
I3987
sS'IPR024936'
p1550
I976
sS'IPR024937'
p1551
I205
sS'IPR024395'
p1552
I2310
sS'IPR012135'
p1553
I1595
sS'IPR012134'
p1554
I3352
sS'IPR016102'
p1555
I3216
sS'IPR005248'
p1556
I3167
sS'IPR012131'
p1557
I117
sS'IPR022125'
p1558
I2868
sS'IPR012133'
p1559
I51
sS'IPR004087'
p1560
I351
sS'IPR021611'
p1561
I2171
sS'IPR024312'
p1562
I3819
sS'IPR012592'
p1563
I1991
sS'IPR012591'
p1564
I1990
sS'IPR012590'
p1565
I2834
sS'IPR028648'
p1566
I4029
sS'IPR004089'
p1567
I2739
sS'IPR026869'
p1568
I3297
sS'IPR001748'
p1569
I1432
sS'IPR023093'
p1570
I3900
sS'IPR001214'
p1571
I2191
sS'IPR005607'
p1572
I1877
sS'IPR001216'
p1573
I1835
sS'IPR001210'
p1574
I177
sS'IPR013627'
p1575
I2284
sS'IPR004154'
p1576
I282
sS'IPR004155'
p1577
I2967
sS'IPR025260'
p1578
I1868
sS'IPR004152'
p1579
I1455
sS'IPR028995'
p1580
I1333
sS'IPR017961'
p1581
I867
sS'IPR017963'
p1582
I868
sS'IPR021538'
p1583
I3394
sS'IPR017964'
p1584
I917
sS'IPR023318'
p1585
I4044
sS'IPR023097'
p1586
I1363
sS'IPR001698'
p1587
I927
sS'IPR024647'
p1588
I921
sS'IPR024645'
p1589
I3644
sS'IPR025069'
p1590
I3885
sS'IPR010674'
p1591
I3441
sS'IPR001692'
p1592
I114
sS'IPR001697'
p1593
I90
sS'IPR015661'
p1594
I2814
sS'IPR022233'
p1595
I3499
sS'IPR007705'
p1596
I3568
sS'IPR022238'
p1597
I1516
sS'IPR018593'
p1598
I3604
sS'IPR022581'
p1599
I1570
sS'IPR009653'
p1600
I4025
sS'IPR009543'
p1601
I3777
sS'IPR022629'
p1602
I785
sS'IPR016964'
p1603
I3897
sS'IPR001104'
p1604
I2775
sS'IPR008278'
p1605
I1133
sS'IPR005334'
p1606
I2671
sS'IPR008271'
p1607
I88
sS'IPR021582'
p1608
I2790
sS'IPR025604'
p1609
I2583
sS'IPR025607'
p1610
I1542
sS'IPR025602'
p1611
I3698
sS'IPR004550'
p1612
I762
sS'IPR004551'
p1613
I1771
sS'IPR022127'
p1614
I3872
sS'IPR024316'
p1615
I2778
sS'IPR019926'
p1616
I950
sS'IPR004556'
p1617
I3327
sS'IPR004557'
p1618
I3530
sS'IPR007653'
p1619
I3891
sS'IPR022057'
p1620
I2511
sS'IPR023298'
p1621
I311
sS'IPR005938'
p1622
I1537
sS'IPR026000'
p1623
I3827
sS'IPR022052'
p1624
I941
sS'IPR018524'
p1625
I587
sS'IPR018525'
p1626
I1381
sS'IPR023296'
p1627
I104
sS'IPR005936'
p1628
I1893
sS'IPR005687'
p1629
I462
sS'IPR018521'
p1630
I271
sS'IPR018522'
p1631
I433
sS'IPR018523'
p1632
I1594
sS'IPR024317'
p1633
I2134
sS'IPR027131'
p1634
I3798
sS'IPR019727'
p1635
I3702
sS'IPR016812'
p1636
I2480
sS'IPR023614'
p1637
I306
sS'IPR023615'
p1638
I62
sS'IPR023616'
p1639
I63
sS'IPR009784'
p1640
I2804
sS'IPR008659'
p1641
I2576
sS'IPR005200'
p1642
I3269
sS'IPR004886'
p1643
I1290
sS'IPR025110'
p1644
I544
sS'IPR004882'
p1645
I3759
sS'IPR004331'
p1646
I1087
sS'IPR023471'
p1647
I1142
sS'IPR020082'
p1648
I2634
sS'IPR023476'
p1649
I2051
sS'IPR005062'
p1650
I1786
sS'IPR005061'
p1651
I3277
sS'IPR005841'
p1652
I2006
sS'IPR005843'
p1653
I2005
sS'IPR023184'
p1654
I43
sS'IPR005844'
p1655
I2002
sS'IPR005599'
p1656
I1657
sS'IPR028375'
p1657
I425
sS'IPR005849'
p1658
I577
sS'IPR026480'
p1659
I3475
sS'IPR008895'
p1660
I3484
sS'IPR008897'
p1661
I200
sS'IPR005336'
p1662
I2514
sS'IPR019439'
p1663
I3687
sS'IPR002483'
p1664
I3168
sS'IPR019431'
p1665
I3319
sS'IPR019433'
p1666
I3301
sS'IPR001107'
p1667
I2808
sS'IPR019435'
p1668
I3109
sS'IPR019434'
p1669
I2311
sS'IPR019436'
p1670
I3229
sS'IPR002314'
p1671
I285
sS'IPR002316'
p1672
I2436
sS'IPR002317'
p1673
I531
sS'IPR002646'
p1674
I1226
sS'IPR009348'
p1675
I2621
sS'IPR023058'
p1676
I1327
sS'IPR002645'
p1677
I2397
sS'IPR016655'
p1678
I3015
sS'IPR002318'
p1679
I2794
sS'IPR002319'
p1680
I573
sS'IPR012486'
p1681
I3313
sS'IPR006141'
p1682
I1083
sS'IPR020550'
p1683
I1698
sS'IPR002469'
p1684
I1128
sS'IPR020556'
p1685
I1324
sS'IPR020557'
p1686
I233
sS'IPR020554'
p1687
I3123
sS'IPR006148'
p1688
I2243
sS'IPR027353'
p1689
I2113
sS'IPR020559'
p1690
I464
sS'IPR002466'
p1691
I3113
sS'IPR006262'
p1692
I3719
sS'IPR002464'
p1693
I442
sS'IPR017261'
p1694
I3526
sS'IPR003675'
p1695
I3493
sS'IPR026739'
p1696
I1558
sS'IPR013235'
p1697
I3107
sS'IPR020610'
p1698
I1573
sS'IPR018256'
p1699
I2712
sS'IPR018254'
p1700
I769
sS'IPR007817'
p1701
I1248
sS'IPR007810'
p1702
I1577
sS'IPR018253'
p1703
I985
sS'IPR022533'
p1704
I3624
sS'IPR020956'
p1705
I3400
sS'IPR006811'
p1706
I3240
sS'IPR004123'
p1707
I3747
sS'IPR005656'
p1708
I3967
sS'IPR018259'
p1709
I3419
sS'IPR011761'
p1710
I211
sS'IPR011760'
p1711
I3824
sS'IPR011763'
p1712
I1930
sS'IPR011762'
p1713
I1931
sS'IPR011765'
p1714
I483
sS'IPR011764'
p1715
I818
sS'IPR011767'
p1716
I1101
sS'IPR011766'
p1717
I394
sS'IPR006035'
p1718
I110
sS'IPR006034'
p1719
I757
sS'IPR002004'
p1720
I236
sS'IPR006032'
p1721
I720
sS'IPR014732'
p1722
I209
sS'IPR006361'
p1723
I1727
sS'IPR003204'
p1724
I72
sS'IPR014084'
p1725
I1805
sS'IPR025762'
p1726
I2643
sS'IPR028209'
p1727
I3404
sS'IPR027519'
p1728
I3544
sS'IPR027517'
p1729
I2968
sS'IPR027516'
p1730
I1788
sS'IPR003347'
p1731
I2635
sS'IPR028207'
p1732
I1506
sS'IPR006567'
p1733
I1738
sS'IPR024324'
p1734
I3681
sS'IPR000782'
p1735
I3779
sS'IPR008932'
p1736
I3150
sS'IPR020587'
p1737
I1476
sS'IPR018820'
p1738
I3766
sS'IPR017303'
p1739
I3398
sS'IPR011107'
p1740
I2889
sS'IPR005195'
p1741
I3006
sS'IPR006785'
p1742
I3131
sS'IPR013820'
p1743
I86
sS'IPR006789'
p1744
I2772
sS'IPR018822'
p1745
I3110
sS'IPR011108'
p1746
I3692
sS'IPR000648'
p1747
I2114
sS'IPR000649'
p1748
I880
sS'IPR006569'
p1749
I2585
sS'IPR006568'
p1750
I3409
sS'IPR013822'
p1751
I1181
sS'IPR014881'
p1752
I3813
sS'IPR007567'
p1753
I2137
sS'IPR000640'
p1754
I1400
sS'IPR000642'
p1755
I1894
sS'IPR006560'
p1756
I2928
sS'IPR000644'
p1757
I887
sS'IPR018485'
p1758
I1702
sS'IPR006565'
p1759
I3931
sS'IPR012942'
p1760
I3737
sS'IPR003511'
p1761
I1168
sS'IPR006768'
p1762
I3191
sS'IPR018484'
p1763
I1703
sS'IPR020373'
p1764
I1162
sS'IPR006762'
p1765
I3206
sS'IPR013665'
p1766
I3946
sS'IPR006767'
p1767
I3192
sS'IPR026003'
p1768
I3542
sS'IPR002867'
p1769
I2183
sS'IPR002869'
p1770
I2598
sS'IPR005935'
p1771
I1749
sS'IPR010960'
p1772
I1235
sS'IPR007148'
p1773
I1521
sS'IPR007149'
p1774
I2405
sS'IPR003195'
p1775
I447
sS'IPR003194'
p1776
I1874
sS'IPR011613'
p1777
I563
sS'IPR020083'
p1778
I268
sS'IPR020084'
p1779
I3151
sS'IPR011614'
p1780
I381
sS'IPR004739'
p1781
I2413
sS'IPR001917'
p1782
I457
sS'IPR017771'
p1783
I707
sS'IPR001915'
p1784
I2220
sS'IPR022751'
p1785
I2269
sS'IPR001912'
p1786
I14
sS'IPR001911'
p1787
I2302
sS'IPR001910'
p1788
I3559
sS'IPR000424'
p1789
I1756
sS'IPR000425'
p1790
I689
sS'IPR000426'
p1791
I1220
sS'IPR000420'
p1792
I797
sS'IPR000422'
p1793
I4037
sS'IPR005930'
p1794
I814
sS'IPR007364'
p1795
I3933
sS'IPR010989'
p1796
I1921
sS'IPR024096'
p1797
I2209
sS'IPR024095'
p1798
I1466
sS'IPR010982'
p1799
I31
sS'IPR024099'
p1800
I2296
sS'IPR022755'
p1801
I1153
sS'IPR010987'
p1802
I1346
sS'IPR024706'
p1803
I2054
sS'IPR003422'
p1804
I42
sS'IPR002912'
p1805
I800
sS'IPR029006'
p1806
I1000
sS'IPR024708'
p1807
I382
sS'IPR009053'
p1808
I2646
sS'IPR029001'
p1809
I2966
sS'IPR013320'
p1810
I1582
sS'IPR013986'
p1811
I893
sS'IPR018203'
p1812
I1929
sS'IPR013792'
p1813
I611
sS'IPR013509'
p1814
I1240
sS'IPR014013'
p1815
I443
sS'IPR019012'
p1816
I3873
sS'IPR024880'
p1817
I3017
sS'IPR010021'
p1818
I2492
sS'IPR001357'
p1819
I839
sS'IPR013500'
p1820
I276
sS'IPR001351'
p1821
I353
sS'IPR001353'
p1822
I1221
sS'IPR001352'
p1823
I3325
sS'IPR000511'
p1824
I396
sS'IPR007219'
p1825
I252
sS'IPR001593'
p1826
I1348
sS'IPR007213'
p1827
I3548
sS'IPR018206'
p1828
I3983
sS'IPR007216'
p1829
I3270
sS'IPR007217'
p1830
I1514
sS'IPR007214'
p1831
I2438
sS'IPR001594'
p1832
I2581
sS'IPR003738'
p1833
I3586
sS'IPR012908'
p1834
I2883
sS'IPR019015'
p1835
I1780
sS'IPR007846'
p1836
I3518
sS'IPR012904'
p1837
I3237
sS'IPR013121'
p1838
I1889
sS'IPR019014'
p1839
I2861
sS'IPR021110'
p1840
I2064
sS'IPR003737'
p1841
I1373
sS'IPR016482'
p1842
I3095
sS'IPR016467'
p1843
I1474
sS'IPR002528'
p1844
I2459
sS'IPR013183'
p1845
I3360
sS'IPR013182'
p1846
I1797
sS'IPR016174'
p1847
I45
sS'IPR016171'
p1848
I1937
sS'IPR021013'
p1849
I1724
sS'IPR023139'
p1850
I3852
sS'IPR021624'
p1851
I2618
sS'IPR012270'
p1852
I369
sS'IPR013657'
p1853
I696
sS'IPR011515'
p1854
I3817
sS'IPR008669'
p1855
I3064
sS'IPR013616'
p1856
I562
sS'IPR001734'
p1857
I2008
sS'IPR026812'
p1858
I1795
sS'IPR000357'
p1859
I1676
sS'IPR024679'
p1860
I2487
sS'IPR006645'
p1861
I1567
sS'IPR000352'
p1862
I1656
sS'IPR015878'
p1863
I2633
sS'IPR001303'
p1864
I2959
sS'IPR017972'
p1865
I779
sS'IPR024672'
p1866
I1208
sS'IPR017970'
p1867
I505
sS'IPR015876'
p1868
I1213
sS'IPR025279'
p1869
I3323
sS'IPR000358'
p1870
I665
sS'IPR017975'
p1871
I182
sS'IPR024079'
p1872
I1461
sS'IPR024078'
p1873
I1374
sS'IPR003653'
p1874
I2779
sS'IPR021750'
p1875
I3294
sS'IPR021757'
p1876
I2233
sS'IPR012875'
p1877
I2389
sS'IPR012879'
p1878
I3259
sS'IPR024072'
p1879
I552
sS'IPR024075'
p1880
I925
sS'IPR024074'
p1881
I1331
sS'IPR024077'
p1882
I1462
sS'IPR001307'
p1883
I3829
sS'IPR022591'
p1884
I2906
sS'IPR022592'
p1885
I3223
sS'IPR022596'
p1886
I3945
sS'IPR012476'
p1887
I3934
sS'IPR014905'
p1888
I1918
sS'IPR004182'
p1889
I2484
sS'IPR004181'
p1890
I2420
sS'IPR000009'
p1891
I3370
sS'IPR019603'
p1892
I3364
sS'IPR019601'
p1893
I2663
sS'IPR004177'
p1894
I3914
sS'IPR019605'
p1895
I3497
sS'IPR012677'
p1896
I237
sS'IPR012675'
p1897
I281
sS'IPR005326'
p1898
I2908
sS'IPR016194'
p1899
I1904
sS'IPR001171'
p1900
I1437
sS'IPR008268'
p1901
I2238
sS'IPR008266'
p1902
I3227
sS'IPR028884'
p1903
I3514
sS'IPR008264'
p1904
I3653
sS'IPR020195'
p1905
I3743
sS'IPR001179'
p1906
I1175
sS'IPR023201'
p1907
I1967
sS'IPR015901'
p1908
I98
sS'IPR012589'
p1909
I1952
sS'IPR025614'
p1910
I2749
sS'IPR015902'
p1911
I710
sS'IPR004529'
p1912
I1022
sS'IPR012580'
p1913
I3009
sS'IPR006708'
p1914
I3754
sS'IPR004520'
p1915
I1809
sS'IPR018083'
p1916
I1436
sS'IPR004457'
p1917
I3211
sS'IPR018087'
p1918
I1371
sS'IPR004450'
p1919
I1040
sS'IPR018085'
p1920
I886
sS'IPR015721'
p1921
I3090
sS'IPR018089'
p1922
I208
sS'IPR015722'
p1923
I2499
sS'IPR003121'
p1924
I1518
sS'IPR025852'
p1925
I3210
sS'IPR000620'
p1926
I3550
sS'IPR025856'
p1927
I3471
sS'IPR007696'
p1928
I1428
sS'IPR019734'
p1929
I459
sS'IPR027408'
p1930
I2914
sS'IPR016827'
p1931
I3405
sS'IPR007070'
p1932
I2144
sS'IPR019488'
p1933
I2058
sS'IPR012386'
p1934
I3222
sS'IPR024637'
p1935
I2921
sS'IPR008493'
p1936
I3797
sS'IPR008862'
p1937
I2721
sS'IPR000159'
p1938
I621
sS'IPR005631'
p1939
I3806
sS'IPR002687'
p1940
I3059
sS'IPR023405'
p1941
I899
sS'IPR023406'
p1942
I898
sS'IPR023401'
p1943
I3129
sS'IPR016564'
p1944
I3169
sS'IPR005078'
p1945
I3295
sS'IPR023409'
p1946
I1636
sS'IPR004859'
p1947
I1292
sS'IPR018464'
p1948
I3734
sS'IPR005850'
p1949
I578
sS'IPR018394'
p1950
I313
sS'IPR003607'
p1951
I418
sS'IPR005854'
p1952
I220
sS'IPR005855'
p1953
I703
sS'IPR004853'
p1954
I1298
sS'IPR004855'
p1955
I1871
sS'IPR018468'
p1956
I1784
sS'IPR004856'
p1957
I2730
sS'IPR024527'
p1958
I2112
sS'IPR020294'
p1959
I4027
sS'IPR002677'
p1960
I1440
sS'IPR002675'
p1961
I3053
sS'IPR002674'
p1962
I718
sS'IPR002673'
p1963
I347
sS'IPR005109'
p1964
I1367
sS'IPR002671'
p1965
I350
sS'IPR009688'
p1966
I2248
sS'IPR016534'
p1967
I3476
sS'IPR005106'
p1968
I1669
sS'IPR005455'
p1969
I512
sS'IPR027038'
p1970
I837
sS'IPR005101'
p1971
I315
sS'IPR002678'
p1972
I3120
sS'IPR002100'
p1973
I477
sS'IPR020565'
p1974
I404
sS'IPR006157'
p1975
I3281
sS'IPR002109'
p1976
I1103
sS'IPR028071'
p1977
I3566
sS'IPR023313'
p1978
I374
sS'IPR019441'
p1979
I3671
sS'IPR020569'
p1980
I1523
sS'IPR020568'
p1981
I189
sS'IPR023088'
p1982
I420
sS'IPR018269'
p1983
I754
sS'IPR018268'
p1984
I2434
sS'IPR018263'
p1985
I2260
sS'IPR018262'
p1986
I683
sS'IPR018261'
p1987
I865
sS'IPR018260'
p1988
I341
sS'IPR018267'
p1989
I3052
sS'IPR018266'
p1990
I346
sS'IPR010513'
p1991
I1740
sS'IPR016487'
p1992
I3354
sS'IPR018559'
p1993
I4024
sS'IPR011576'
p1994
I2274
sS'IPR021149'
p1995
I3020
sS'IPR002589'
p1996
I2325
sS'IPR006809'
p1997
I3564
sS'IPR006805'
p1998
I134
sS'IPR002587'
p1999
I843
sS'IPR020224'
p2000
I3178
sS'IPR018065'
p2001
I2774
sS'IPR018067'
p2002
I3371
sS'IPR002582'
p2003
I1134
sS'IPR002075'
p2004
I1985
sS'IPR005845'
p2005
I2004
sS'IPR002076'
p2006
I1447
sS'IPR027725'
p2007
I802
sS'IPR014722'
p2008
I339
sS'IPR022495'
p2009
I3226
sS'IPR011598'
p2010
I506
sS'IPR011599'
p2011
I3588
sS'IPR014726'
p2012
I742
sS'IPR014727'
p2013
I273
sS'IPR014724'
p2014
I591
sS'IPR007146'
p2015
I2486
sS'IPR020981'
p2016
I1530
sS'IPR014729'
p2017
I158
sS'IPR003213'
p2018
I3390
sS'IPR003210'
p2019
I2565
sS'IPR006379'
p2020
I530
sS'IPR008332'
p2021
I1540
sS'IPR009917'
p2022
I2563
sS'IPR009914'
p2023
I4007
sS'IPR018552'
p2024
I4017
sS'IPR007147'
p2025
I2669
sS'IPR004006'
p2026
I2878
sS'IPR002293'
p2027
I293
sS'IPR006797'
p2028
I2089
sS'IPR002297'
p2029
I1027
sS'IPR006977'
p2030
I3104
sS'IPR018556'
p2031
I3941
sS'IPR014430'
p2032
I3492
sS'IPR007515'
p2033
I1845
sS'IPR000988'
p2034
I261
sS'IPR007513'
p2035
I4014
sS'IPR004600'
p2036
I3856
sS'IPR000634'
p2037
I141
sS'IPR000980'
p2038
I1362
sS'IPR007519'
p2039
I3026
sS'IPR000630'
p2040
I673
sS'IPR006572'
p2041
I1719
sS'IPR015892'
p2042
I3249
sS'IPR010339'
p2043
I3533
sS'IPR007681'
p2044
I2971
sS'IPR002853'
p2045
I2174
sS'IPR006773'
p2046
I25
sS'IPR006774'
p2047
I952
sS'IPR007991'
p2048
I2156
sS'IPR007145'
p2049
I3080
sS'IPR007992'
p2050
I2249
sS'IPR017568'
p2051
I2592
sS'IPR027523'
p2052
I3502
sS'IPR013538'
p2053
I3976
sS'IPR018955'
p2054
I2776
sS'IPR020751'
p2055
I3028
sS'IPR007173'
p2056
I3344
sS'IPR007177'
p2057
I3883
sS'IPR007603'
p2058
I3962
sS'IPR007175'
p2059
I2792
sS'IPR007174'
p2060
I2206
sS'IPR011603'
p2061
I1211
sS'IPR025845'
p2062
I3177
sS'IPR010703'
p2063
I3705
sS'IPR011607'
p2064
I213
sS'IPR000183'
p2065
I583
sS'IPR012394'
p2066
I3585
sS'IPR001609'
p2067
I624
sS'IPR017703'
p2068
I2986
sS'IPR000184'
p2069
I3334
sS'IPR017714'
p2070
I2958
sS'IPR019451'
p2071
I4004
sS'IPR002489'
p2072
I3998
sS'IPR024084'
p2073
I244
sS'IPR000740'
p2074
I2406
sS'IPR000743'
p2075
I2997
sS'IPR024080'
p2076
I1460
sS'IPR000744'
p2077
I1846
sS'IPR022043'
p2078
I3985
sS'IPR024083'
p2079
I235
sS'IPR007191'
p2080
I1922
sS'IPR007193'
p2081
I2481
sS'IPR007192'
p2082
I1047
sS'IPR007194'
p2083
I2208
sS'IPR007197'
p2084
I1758
sS'IPR007196'
p2085
I1533
sS'IPR024242'
p2086
I3430
sS'IPR013724'
p2087
I1344
sS'IPR010580'
p2088
I2402
sS'IPR029016'
p2089
I2166
sS'IPR029017'
p2090
I140
sS'IPR016763'
p2091
I2682
sS'IPR002922'
p2092
I1717
sS'IPR003439'
p2093
I699
sS'IPR014898'
p2094
I2244
sS'IPR013992'
p2095
I1097
sS'IPR027925'
p2096
I1382
sS'IPR022040'
p2097
I2800
sS'IPR014891'
p2098
I2107
sS'IPR010643'
p2099
I445
sS'IPR023509'
p2100
I3765
sS'IPR012066'
p2101
I2210
sS'IPR013049'
p2102
I1342
sS'IPR024888'
p2103
I1848
sS'IPR013519'
p2104
I2934
sS'IPR001348'
p2105
I83
sS'IPR001349'
p2106
I1896
sS'IPR024884'
p2107
I3436
sS'IPR001347'
p2108
I704
sS'IPR001345'
p2109
I154
sS'IPR001342'
p2110
I1668
sS'IPR012860'
p2111
I4035
sS'IPR001341'
p2112
I801
sS'IPR000297'
p2113
I1328
sS'IPR001589'
p2114
I1840
sS'IPR007229'
p2115
I2597
sS'IPR001585'
p2116
I991
sS'IPR007225'
p2117
I1301
sS'IPR007224'
p2118
I3607
sS'IPR001580'
p2119
I1579
sS'IPR000568'
p2120
I125
sS'IPR000298'
p2121
I69
sS'IPR014876'
p2122
I3630
sS'IPR021109'
p2123
I503
sS'IPR021106'
p2124
I1970
sS'IPR005117'
p2125
I2992
sS'IPR020946'
p2126
I2522
sS'IPR016492'
p2127
I511
sS'IPR021100'
p2128
I3324
sS'IPR013197'
p2129
I1729
sS'IPR012112'
p2130
I866
sS'IPR012110'
p2131
I390
sS'IPR016169'
p2132
I1939
sS'IPR016166'
p2133
I1936
sS'IPR016167'
p2134
I1938
sS'IPR016164'
p2135
I1935
sS'IPR016162'
p2136
I515
sS'IPR016163'
p2137
I516
sS'IPR016160'
p2138
I514
sS'IPR016161'
p2139
I115
sS'IPR027359'
p2140
I3066
sS'IPR007023'
p2141
I3831
sS'IPR019128'
p2142
I1480
sS'IPR013602'
p2143
I2132
sS'IPR006142'
p2144
I664
sS'IPR001765'
p2145
I3248
sS'IPR000362'
p2146
I232
sS'IPR008417'
p2147
I2104
sS'IPR000366'
p2148
I3
sS'IPR017782'
p2149
I3642
sS'IPR000169'
p2150
I3392
sS'IPR017946'
p2151
I1088
sS'IPR017945'
p2152
I1832
sS'IPR024660'
p2153
I3086
sS'IPR024661'
p2154
I1104
sS'IPR017941'
p2155
I566
sS'IPR014746'
p2156
I1713
sS'IPR021036'
p2157
I3207
sS'IPR024274'
p2158
I3887
sS'IPR024371'
p2159
I2373
sS'IPR020558'
p2160
I2591
sS'IPR002930'
p2161
I2612
sS'IPR004192'
p2162
I567
sS'IPR004193'
p2163
I1875
sS'IPR019383'
p2164
I2850
sS'IPR024626'
p2165
I2858
sS'IPR022210'
p2166
I491
sS'IPR018892'
p2167
I1205
sS'IPR019388'
p2168
I3102
sS'IPR001310'
p2169
I3062
sS'IPR029066'
p2170
I582
sS'IPR027357'
p2171
I3704
sS'IPR011513'
p2172
I3782
sS'IPR008253'
p2173
I3204
sS'IPR001164'
p2174
I1828
sS'IPR008250'
p2175
I310
sS'IPR022697'
p2176
I1666
sS'IPR008255'
p2177
I1644
sS'IPR001161'
p2178
I3373
sS'IPR008259'
p2179
I49
sS'IPR002937'
p2180
I3078
sS'IPR015912'
p2181
I1067
sS'IPR015910'
p2182
I3558
sS'IPR015911'
p2183
I96
sS'IPR004539'
p2184
I194
sS'IPR015919'
p2185
I2550
sS'IPR023013'
p2186
I3384
sS'IPR004530'
p2187
I572
sS'IPR004531'
p2188
I1021
sS'IPR018094'
p2189
I100
sS'IPR022678'
p2190
I972
sS'IPR023271'
p2191
I690
sS'IPR015048'
p2192
I3709
sS'IPR005916'
p2193
I1388
sS'IPR004441'
p2194
I1412
sS'IPR022671'
p2195
I741
sS'IPR005668'
p2196
I400
sS'IPR022673'
p2197
I292
sS'IPR022672'
p2198
I291
sS'IPR022675'
p2199
I824
sS'IPR019349'
p2200
I3539
sS'IPR022677'
p2201
I974
sS'IPR022676'
p2202
I973
sS'IPR027992'
p2203
I3311
sS'IPR019084'
p2204
I2584
sS'IPR021819'
p2205
I3314
sS'IPR015280'
p2206
I840
sS'IPR002836'
p2207
I3614
sS'IPR018608'
p2208
I2523
sS'IPR001019'
p2209
I605
sS'IPR005269'
p2210
I2941
sS'IPR023674'
p2211
I737
sS'IPR023673'
p2212
I736
sS'IPR009230'
p2213
I127
sS'IPR001015'
p2214
I1055
sS'IPR026248'
p2215
I2915
sS'IPR021843'
p2216
I2887
sS'IPR008631'
p2217
I1354
sS'IPR008630'
p2218
I2926
sS'IPR008289'
p2219
I607
sS'IPR026241'
p2220
I2616
sS'IPR000241'
p2221
I3979
sS'IPR021841'
p2222
I3745
sS'IPR019340'
p2223
I1785
sS'IPR023410'
p2224
I1635
sS'IPR027281'
p2225
I2572
sS'IPR027193'
p2226
I3715
sS'IPR015310'
p2227
I3272
sS'IPR003043'
p2228
I2211
sS'IPR006818'
p2229
I1757
sS'IPR005861'
p2230
I458
sS'IPR004840'
p2231
I294
sS'IPR004841'
p2232
I295
sS'IPR008207'
p2233
I3767
sS'IPR007811'
p2234
I1470
sS'IPR004808'
p2235
I2318
sS'IPR019419'
p2236
I2760
sS'IPR019417'
p2237
I4042
sS'IPR002661'
p2238
I2462
sS'IPR019415'
p2239
I3672
sS'IPR019414'
p2240
I4003
sS'IPR019413'
p2241
I3861
sS'IPR019412'
p2242
I2184
sS'IPR019411'
p2243
I2823
sS'IPR019410'
p2244
I2391
sS'IPR023074'
p2245
I861
sS'IPR011400'
p2246
I371
sS'IPR023076'
p2247
I856
sS'IPR005467'
p2248
I2625
sS'IPR026025'
p2249
I1130
sS'IPR006167'
p2250
I423
sS'IPR001478'
p2251
I2786
sS'IPR002110'
p2252
I667
sS'IPR006164'
p2253
I1903
sS'IPR006162'
p2254
I540
sS'IPR001372'
p2255
I3415
sS'IPR021967'
p2256
I3057
sS'IPR006168'
p2257
I2849
sS'IPR001370'
p2258
I2976
sS'IPR018279'
p2259
I672
sS'IPR010506'
p2260
I3926
sS'IPR005480'
p2261
I210
sS'IPR018277'
p2262
I529
sS'IPR023096'
p2263
I877
sS'IPR018271'
p2264
I788
sS'IPR018273'
p2265
I178
sS'IPR009449'
p2266
I1071
sS'IPR018079'
p2267
I13
sS'IPR013079'
p2268
I1847
sS'IPR001374'
p2269
I3335
sS'IPR018074'
p2270
I1312
sS'IPR002591'
p2271
I1442
sS'IPR006012'
p2272
I1920
sS'IPR006011'
p2273
I1919
sS'IPR020401'
p2274
I3616
sS'IPR015157'
p2275
I4011
sS'IPR002067'
p2276
I9
sS'IPR002060'
p2277
I1649
sS'IPR009349'
p2278
I2187
sS'IPR014717'
p2279
I1619
sS'IPR020998'
p2280
I2732
sS'IPR020999'
p2281
I2324
sS'IPR014712'
p2282
I2513
sS'IPR014711'
p2283
I274
sS'IPR014710'
p2284
I524
sS'IPR009327'
p2285
I3494
sS'IPR007015'
p2286
I2638
sS'IPR016902'
p2287
I2557
sS'IPR014719'
p2288
I1156
sS'IPR027574'
p2289
I3711
sS'IPR016903'
p2290
I3780
sS'IPR014810'
p2291
I3870
sS'IPR009772'
p2292
I3654
sS'IPR010347'
p2293
I2374
sS'IPR014397'
p2294
I539
sS'IPR014399'
p2295
I1196
sS'IPR011120'
p2296
I1736
sS'IPR026113'
p2297
I3821
sS'IPR011422'
p2298
I2451
sS'IPR020578'
p2299
I1458
sS'IPR014400'
p2300
I1393
sS'IPR006900'
p2301
I999
sS'IPR014404'
p2302
I1879
sS'IPR011904'
p2303
I3097
sS'IPR011907'
p2304
I2225
sS'IPR009446'
p2305
I1885
sS'IPR020574'
p2306
I748
sS'IPR006581'
p2307
I1718
sS'IPR007667'
p2308
I3257
sS'IPR007504'
p2309
I1592
sS'IPR007502'
p2310
I1037
sS'IPR000999'
p2311
I2226
sS'IPR017174'
p2312
I2907
sS'IPR000629'
p2313
I405
sS'IPR000994'
p2314
I1806
sS'IPR000996'
p2315
I1105
sS'IPR000571'
p2316
I2069
sS'IPR000623'
p2317
I614
sS'IPR000992'
p2318
I700
sS'IPR003088'
p2319
I41
sS'IPR027409'
p2320
I852
sS'IPR001579'
p2321
I1628
sS'IPR007695'
p2322
I1429
sS'IPR007239'
p2323
I3951
sS'IPR027401'
p2324
I626
sS'IPR000361'
p2325
I3771
sS'IPR006742'
p2326
I167
sS'IPR002842'
p2327
I1294
sS'IPR002843'
p2328
I1742
sS'IPR007980'
p2329
I173
sS'IPR013855'
p2330
I366
sS'IPR003388'
p2331
I3625
sS'IPR010233'
p2332
I1565
sS'IPR015381'
p2333
I3145
sS'IPR010237'
p2334
I2658
sS'IPR010722'
p2335
I1759
sS'IPR007785'
p2336
I2212
sS'IPR013528'
p2337
I3350
sS'IPR006716'
p2338
I1731
sS'IPR010729'
p2339
I2227
sS'IPR000194'
p2340
I124
sS'IPR000195'
p2341
I1543
sS'IPR000196'
p2342
I765
sS'IPR024764'
p2343
I3932
sS'IPR029149'
p2344
I2673
sS'IPR018857'
p2345
I3841
sS'IPR007188'
p2346
I3262
sS'IPR000751'
p2347
I1370
sS'IPR000754'
p2348
I747
sS'IPR014978'
p2349
I1269
sS'IPR003402'
p2350
I2477
sS'IPR007180'
p2351
I3410
sS'IPR003152'
p2352
I1842
sS'IPR007187'
p2353
I2217
sS'IPR027266'
p2354
I1810
sS'IPR007185'
p2355
I1387
sS'IPR029065'
p2356
I139
sS'IPR029064'
p2357
I848
sS'IPR029067'
p2358
I1119
sS'IPR002933'
p2359
I679
sS'IPR002934'
p2360
I1641
sS'IPR029060'
p2361
I2223
sS'IPR029063'
p2362
I1411
sS'IPR029062'
p2363
I151
sS'IPR002939'
p2364
I1416
sS'IPR016717'
p2365
I2665
sS'IPR007722'
p2366
I3241
sS'IPR029069'
p2367
I452
sS'IPR029068'
p2368
I3075
sS'IPR016713'
p2369
I2762
sS'IPR016712'
p2370
I3448
sS'IPR017375'
p2371
I3571
sS'IPR010658'
p2372
I3520
sS'IPR025660'
p2373
I3393
sS'IPR010655'
p2374
I3774
sS'IPR001373'
p2375
I2944
sS'IPR000289'
p2376
I677
sS'IPR016025'
p2377
I1282
sS'IPR016024'
p2378
I810
sS'IPR001377'
p2379
I728
sS'IPR001804'
p2380
I242
sS'IPR016021'
p2381
I1792
sS'IPR001806'
p2382
I164
sS'IPR000286'
p2383
I1814
sS'IPR007230'
p2384
I3056
sS'IPR007231'
p2385
I2036
sS'IPR007232'
p2386
I424
sS'IPR007233'
p2387
I3495
sS'IPR007234'
p2388
I2951
sS'IPR007235'
p2389
I3156
sS'IPR001576'
p2390
I95
sS'IPR007238'
p2391
I1198
sS'IPR001578'
p2392
I2071
sS'IPR003710'
p2393
I2472
sS'IPR021133'
p2394
I1046
sS'IPR021132'
p2395
I746
sS'IPR021131'
p2396
I176
sS'IPR021130'
p2397
I118
sS'IPR021137'
p2398
I3317
sS'IPR003719'
p2399
I2458
sS'IPR027165'
p2400
I3735
sS'IPR027512'
p2401
I2335
sS'IPR012104'
p2402
I1392
sS'IPR018803'
p2403
I3460
sS'IPR016150'
p2404
I2554
sS'IPR016157'
p2405
I3166
sS'IPR016156'
p2406
I653
sS'IPR022036'
p2407
I3420
sS'IPR001975'
p2408
I706
sS'IPR010314'
p2409
I3468
sS'IPR016159'
p2410
I1147
sS'IPR001976'
p2411
I721
sS'IPR001971'
p2412
I401
sS'IPR018935'
p2413
I3911
sS'IPR027363'
p2414
I3710
sS'IPR019136'
p2415
I1743
sS'IPR019133'
p2416
I2182
sS'IPR016441'
p2417
I2173
sS'IPR022033'
p2418
I2962
sS'IPR016445'
p2419
I3134
sS'IPR016444'
p2420
I1662
sS'IPR001715'
p2421
I827
sS'IPR001714'
p2422
I2300
sS'IPR005148'
p2423
I2440
sS'IPR024986'
p2424
I3541
sS'IPR001711'
p2425
I1754
sS'IPR024982'
p2426
I3981
sS'IPR000374'
p2427
I1164
sS'IPR000375'
p2428
I1246
sS'IPR004405'
p2429
I1978
sS'IPR001719'
p2430
I1335
sS'IPR001977'
p2431
I3534
sS'IPR005683'
p2432
I3054
sS'IPR008401'
p2433
I3950
sS'IPR002213'
p2434
I3695
sS'IPR019581'
p2435
I1995
sS'IPR001487'
p2436
I1268
sS'IPR017953'
p2437
I2151
sS'IPR017956'
p2438
I569
sS'IPR019580'
p2439
I1994
sS'IPR017958'
p2440
I2032
sS'IPR013598'
p2441
I1660
sS'IPR016255'
p2442
I1009
sS'IPR021006'
p2443
I3722
sS'IPR019582'
p2444
I1996
sS'IPR025583'
p2445
I862
sS'IPR024055'
p2446
I1199
sS'IPR024054'
p2447
I1200
sS'IPR024826'
p2448
I2918
sS'IPR024051'
p2449
I2259
sS'IPR024050'
p2450
I2258
sS'IPR018860'
p2451
I964
sS'IPR012491'
p2452
I957
sS'IPR018864'
p2453
I3094
sS'IPR019622'
p2454
I3238
sS'IPR022816'
p2455
I2299
sS'IPR021261'
p2456
I3011
sS'IPR013709'
p2457
I398
sS'IPR013708'
p2458
I616
sS'IPR003020'
p2459
I3274
sS'IPR021726'
p2460
I3244
sS'IPR001623'
p2461
I983
sS'IPR013705'
p2462
I1410
sS'IPR029787'
p2463
I618
sS'IPR008532'
p2464
I2707
sS'IPR026904'
p2465
I3117
sS'IPR011501'
p2466
I3781
sS'IPR004299'
p2467
I1517
sS'IPR001392'
p2468
I3376
sS'IPR001395'
p2469
I945
sS'IPR007863'
p2470
I484
sS'IPR015927'
p2471
I1007
sS'IPR019035'
p2472
I1529
sS'IPR007862'
p2473
I456
sS'IPR012258'
p2474
I935
sS'IPR012259'
p2475
I553
sS'IPR007717'
p2476
I2023
sS'IPR021646'
p2477
I1250
sS'IPR015928'
p2478
I498
sS'IPR023244'
p2479
I3137
sS'IPR015267'
p2480
I2308
sS'IPR004273'
p2481
I2133
sS'IPR023798'
p2482
I1552
sS'IPR015700'
p2483
I231
sS'IPR025834'
p2484
I277
sS'IPR021861'
p2485
I1100
sS'IPR006966'
p2486
I1625
sS'IPR019716'
p2487
I1163
sS'IPR019711'
p2488
I3943
sS'IPR009203'
p2489
I1821
sS'IPR019460'
p2490
I3995
sS'IPR001025'
p2491
I410
sS'IPR019461'
p2492
I2726
sS'IPR008334'
p2493
I2539
sS'IPR013578'
p2494
I1945
sS'IPR008336'
p2495
I272
sS'IPR017959'
p2496
I2030
sS'IPR008626'
p2497
I1148
sS'IPR022209'
p2498
I3288
sS'IPR007128'
p2499
I2984
sS'IPR025124'
p2500
I3665
sS'IPR026235'
p2501
I3524
sS'IPR026231'
p2502
I3300
sS'IPR008628'
p2503
I3700
sS'IPR005016'
p2504
I3888
sS'IPR005013'
p2505
I2026
sS'IPR005011'
p2506
I3964
sS'IPR005873'
p2507
I2957
sS'IPR005874'
p2508
I1960
sS'IPR005875'
p2509
I1224
sS'IPR026699'
p2510
I2475
sS'IPR018444'
p2511
I1144
sS'IPR004875'
p2512
I1943
sS'IPR004871'
p2513
I3605
sS'IPR004870'
p2514
I2305
sS'IPR021891'
p2515
I3683
sS'IPR023632'
p2516
I2276
sS'IPR019402'
p2517
I1511
sS'IPR019404'
p2518
I4040
sS'IPR002618'
p2519
I1927
sS'IPR005552'
p2520
I2979
sS'IPR008402'
p2521
I2793
sS'IPR002610'
p2522
I3193
sS'IPR018465'
p2523
I3937
sS'IPR027328'
p2524
I2653
sS'IPR005474'
p2525
I1349
sS'IPR005475'
p2526
I1212
sS'IPR005476'
p2527
I1353
sS'IPR005550'
p2528
I2748
sS'IPR004472'
p2529
I3252
sS'IPR005478'
p2530
I1352
sS'IPR008775'
p2531
I2999
sS'IPR002125'
p2532
I415
sS'IPR002124'
p2533
I217
sS'IPR002123'
p2534
I1881
sS'IPR002121'
p2535
I2080
sS'IPR017898'
p2536
I3422
sS'IPR027368'
p2537
I1811
sS'IPR005703'
p2538
I355
sS'IPR023335'
p2539
I1278
sS'IPR025423'
p2540
I3667
sS'IPR001813'
p2541
I174
sS'IPR018281'
p2542
I1347
sS'IPR018280'
p2543
I352
sS'IPR018283'
p2544
I731
sS'IPR018282'
p2545
I729
sS'IPR018285'
p2546
I159
sS'IPR018287'
p2547
I944
sS'IPR005493'
p2548
I2650
sS'IPR026563'
p2549
I3172
sS'IPR026564'
p2550
I3173
sS'IPR004313'
p2551
I3500
sS'IPR011759'
p2552
I66
sS'IPR008672'
p2553
I2806
sS'IPR012578'
p2554
I3974
sS'IPR003107'
p2555
I1150
sS'IPR018047'
p2556
I2715
sS'IPR008851'
p2557
I2845
sS'IPR018045'
p2558
I2396
sS'IPR018042'
p2559
I798
sS'IPR002052'
p2560
I3163
sS'IPR002056'
p2561
I2075
sS'IPR002054'
p2562
I1503
sS'IPR009571'
p2563
I2057
sS'IPR002728'
p2564
I1768
sS'IPR002058'
p2565
I3031
sS'IPR023426'
p2566
I1557
sS'IPR007757'
p2567
I1495
sS'IPR003891'
p2568
I3232
sS'IPR003892'
p2569
I2110
sS'IPR020605'
p2570
I3664
sS'IPR003231'
p2571
I1769
sS'IPR007751'
p2572
I3135
sS'IPR002792'
p2573
I2020
sS'IPR007758'
p2574
I988
sS'IPR009976'
p2575
I2593
sS'IPR013567'
p2576
I2609
sS'IPR028258'
p2577
I1986
sS'IPR014381'
p2578
I1187
sS'IPR010401'
p2579
I3723
sS'IPR006179'
p2580
I2537
sS'IPR013726'
p2581
I4006
sS'IPR006910'
p2582
I3901
sS'IPR006171'
p2583
I435
sS'IPR006172'
p2584
I916
sS'IPR005043'
p2585
I1976
sS'IPR006592'
p2586
I222
sS'IPR000612'
p2587
I960
sS'IPR014368'
p2588
I481
sS'IPR023451'
p2589
I429
sS'IPR006597'
p2590
I2053
sS'IPR006594'
p2591
I2286
sS'IPR000614'
p2592
I2167
sS'IPR000969'
p2593
I3598
sS'IPR003846'
p2594
I3850
sS'IPR006599'
p2595
I1094
sS'IPR014367'
p2596
I776
sS'IPR003527'
p2597
I962
sS'IPR006751'
p2598
I3629
sS'IPR027418'
p2599
I2651
sS'IPR013931'
p2600
I3623
sS'IPR018520'
p2601
I2088
sS'IPR018307'
p2602
I3986
sS'IPR027413'
p2603
I853
sS'IPR027410'
p2604
I854
sS'IPR027417'
p2605
I24
sS'IPR027415'
p2606
I2375
sS'IPR013842'
p2607
I2910
sS'IPR013843'
p2608
I727
sS'IPR016437'
p2609
I3369
sS'IPR013846'
p2610
I3381
sS'IPR013845'
p2611
I726
sS'IPR012953'
p2612
I3600
sS'IPR027094'
p2613
I2362
sS'IPR010714'
p2614
I3251
sS'IPR014709'
p2615
I3802
sS'IPR010089'
p2616
I1441
sS'IPR011629'
p2617
I3260
sS'IPR006357'
p2618
I1160
sS'IPR018783'
p2619
I4022
sS'IPR004276'
p2620
I3696
sS'IPR000101'
p2621
I3657
sS'IPR018712'
p2622
I2640
sS'IPR013283'
p2623
I3465
sS'IPR000764'
p2624
I1561
sS'IPR000760'
p2625
I1697
sS'IPR024260'
p2626
I3328
sS'IPR024261'
p2627
I2155
sS'IPR024263'
p2628
I2559
sS'IPR021346'
p2629
I3830
sS'IPR002942'
p2630
I12
sS'IPR003099'
p2631
I1166
sS'IPR007365'
p2632
I2987
sS'IPR026541'
p2633
I3971
sS'IPR012220'
p2634
I3997
sS'IPR007533'
p2635
I1141
sS'IPR010666'
p2636
I2320
sS'IPR007537'
p2637
I3175
sS'IPR003096'
p2638
I3837
sS'IPR001365'
p2639
I996
sS'IPR001810'
p2640
I555
sS'IPR019623'
p2641
I3505
sS'IPR001362'
p2642
I102
sS'IPR016521'
p2643
I2504
sS'IPR000811'
p2644
I411
sS'IPR000542'
p2645
I1895
sS'IPR000541'
p2646
I3124
sS'IPR000812'
p2647
I1630
sS'IPR000547'
p2648
I882
sS'IPR000814'
p2649
I922
sS'IPR016528'
p2650
I881
sS'IPR000544'
p2651
I3663
sS'IPR007245'
p2652
I2527
sS'IPR001563'
p2653
I107
sS'IPR007247'
p2654
I1766
sS'IPR007246'
p2655
I2582
sS'IPR007241'
p2656
I3893
sS'IPR001567'
p2657
I1463
sS'IPR001564'
p2658
I2123
sS'IPR007242'
p2659
I2372
sS'IPR001568'
p2660
I3444
sS'IPR001569'
p2661
I3051
sS'IPR007249'
p2662
I3531
sS'IPR003197'
p2663
I44
sS'IPR003700'
p2664
I2285
sS'IPR003701'
p2665
I1907
sS'IPR003702'
p2666
I1714
sS'IPR003196'
p2667
I2846
sS'IPR024468'
p2668
I3018
sS'IPR024461'
p2669
I2880
sS'IPR016141'
p2670
I130
sS'IPR016142'
p2671
I131
sS'IPR001969'
p2672
I18
sS'IPR019145'
p2673
I3688
sS'IPR016639'
p2674
I2214
sS'IPR016149'
p2675
I2553
sS'IPR016452'
p2676
I450
sS'IPR016453'
p2677
I2831
sS'IPR016454'
p2678
I1459
sS'IPR000380'
p2679
I895
sS'IPR026827'
p2680
I2028
sS'IPR024990'
p2681
I3298
sS'IPR024991'
p2682
I3899
sS'IPR026829'
p2683
I3032
sS'IPR001708'
p2684
I2631
sS'IPR016277'
p2685
I1406
sS'IPR017925'
p2686
I551
sS'IPR001497'
p2687
I1539
sS'IPR001494'
p2688
I1659
sS'IPR015847'
p2689
I2913
sS'IPR019897'
p2690
I2667
sS'IPR000581'
p2691
I2590
sS'IPR017923'
p2692
I509
sS'IPR000146'
p2693
I635
sS'IPR024688'
p2694
I2803
sS'IPR024689'
p2695
I1404
sS'IPR015875'
p2696
I2429
sS'IPR001499'
p2697
I427
sS'IPR016039'
p2698
I1132
sS'IPR012001'
p2699
I393
sS'IPR016035'
p2700
I451
sS'IPR016037'
p2701
I613
sS'IPR018870'
p2702
I2990
sS'IPR000308'
p2703
I1634
sS'IPR021278'
p2704
I3367
sS'IPR019651'
p2705
I2601
sS'IPR025867'
p2706
I1812
sS'IPR013718'
p2707
I3649
sS'IPR013719'
p2708
I1808
sS'IPR012621'
p2709
I3239
sS'IPR000589'
p2710
I356
sS'IPR021786'
p2711
I3498
sS'IPR001632'
p2712
I1123
sS'IPR013713'
p2713
I1975
sS'IPR001631'
p2714
I278
sS'IPR013716'
p2715
I620
sS'IPR001141'
p2716
I682
sS'IPR001142'
p2717
I1
sS'IPR015939'
p2718
I2948
sS'IPR001388'
p2719
I1296
sS'IPR001389'
p2720
I709
sS'IPR008501'
p2721
I2011
sS'IPR001382'
p2722
I1954
sS'IPR015931'
p2723
I500
sS'IPR015932'
p2724
I501
sS'IPR003038'
p2725
I2922
sS'IPR015937'
p2726
I495
sS'IPR004042'
p2727
I662
sS'IPR004043'
p2728
I2767
sS'IPR004516'
p2729
I494
sS'IPR014813'
p2730
I2649
sS'IPR004511'
p2731
I1109
sS'IPR004519'
p2732
I2101
sS'IPR025481'
p2733
I2750
sS'IPR021651'
p2734
I1969
sS'IPR005647'
p2735
I3126
sS'IPR015712'
p2736
I588
sS'IPR024790'
p2737
I3593
sS'IPR014816'
p2738
I2919
sS'IPR022659'
p2739
I1034
sS'IPR022658'
p2740
I1611
sS'IPR022309'
p2741
I730
sS'IPR004114'
p2742
I3118
sS'IPR022879'
p2743
I1041
sS'IPR011498'
p2744
I3854
sS'IPR022653'
p2745
I580
sS'IPR006671'
p2746
I915
sS'IPR000304'
p2747
I1707
sS'IPR021876'
p2748
I3279
sS'IPR021875'
p2749
I3280
sS'IPR009580'
p2750
I3728
sS'IPR017104'
p2751
I2265
sS'IPR009582'
p2752
I3628
sS'IPR011333'
p2753
I849
sS'IPR019273'
p2754
I2531
sS'IPR020103'
p2755
I1664
sS'IPR001030'
p2756
I499
sS'IPR016852'
p2757
I3535
sS'IPR016853'
p2758
I3496
sS'IPR018815'
p2759
I2985
sS'IPR022784'
p2760
I2602
sS'IPR008610'
p2761
I2143
sS'IPR020583'
p2762
I1699
sS'IPR022780'
p2763
I3626
sS'IPR010828'
p2764
I2731
sS'IPR000039'
p2765
I745
sS'IPR008183'
p2766
I258
sS'IPR004507'
p2767
I2018
sS'IPR008180'
p2768
I1980
sS'IPR026223'
p2769
I2473
sS'IPR004607'
p2770
I241
sS'IPR027170'
p2771
I3408
sS'IPR011494'
p2772
I1781
sS'IPR005809'
p2773
I3214
sS'IPR018812'
p2774
I3488
sS'IPR005804'
p2775
I1215
sS'IPR018456'
p2776
I1948
sS'IPR005801'
p2777
I132
sS'IPR018907'
p2778
I3947
sS'IPR003733'
p2779
I2843
sS'IPR004861'
p2780
I1452
sS'IPR015155'
p2781
I2139
sS'IPR012255'
p2782
I2862
sS'IPR015158'
p2783
I3570
sS'IPR015159'
p2784
I1249
sS'IPR019474'
p2785
I3351
sS'IPR022968'
p2786
I3882
sS'IPR019473'
p2787
I3510
sS'IPR009100'
p2788
I937
sS'IPR018818'
p2789
I3966
sS'IPR014801'
p2790
I3132
sS'IPR024704'
p2791
I1955
sS'IPR019479'
p2792
I2055
sS'IPR018819'
p2793
I3876
sS'IPR022091'
p2794
I2988
sS'IPR022092'
p2795
I2989
sS'IPR004468'
p2796
I1601
sS'IPR026591'
p2797
I408
sS'IPR008985'
p2798
I105
sS'IPR008984'
p2799
I1299
sS'IPR023251'
p2800
I4033
sS'IPR008989'
p2801
I1143
sS'IPR008988'
p2802
I3022
sS'IPR023321'
p2803
I3562
sS'IPR027317'
p2804
I1509
sS'IPR023323'
p2805
I1364
sS'IPR002423'
p2806
I850
sS'IPR027312'
p2807
I3218
sS'IPR004130'
p2808
I2969
sS'IPR026777'
p2809
I3273
sS'IPR003428'
p2810
I2766
sS'IPR015536'
p2811
I3525
sS'IPR026573'
p2812
I3399
sS'IPR018298'
p2813
I3907
sS'IPR018299'
p2814
I832
sS'IPR018255'
p2815
I2825
sS'IPR008967'
p2816
I2506
sS'IPR008966'
p2817
I1209
sS'IPR018050'
p2818
I1651
sS'IPR007919'
p2819
I3863
sS'IPR018052'
p2820
I256
sS'IPR018053'
p2821
I103
sS'IPR022703'
p2822
I2916
sS'IPR002769'
p2823
I3993
sS'IPR009360'
p2824
I1233
sS'IPR019507'
p2825
I162
sS'IPR002733'
p2826
I3859
sS'IPR002041'
p2827
I1912
sS'IPR002043'
p2828
I884
sS'IPR026681'
p2829
I3312
sS'IPR002738'
p2830
I2471
sS'IPR002048'
p2831
I4
sS'IPR005024'
p2832
I2172
sS'IPR027229'
p2833
I3561
sS'IPR002558'
p2834
I1997
sS'IPR006615'
p2835
I2594
sS'IPR006614'
p2836
I2357
sS'IPR002553'
p2837
I1559
sS'IPR002550'
p2838
I3930
sS'IPR014041'
p2839
I2981
sS'IPR002554'
p2840
I2543
sS'IPR004274'
p2841
I2455
sS'IPR028245'
p2842
I3189
sS'IPR028241'
p2843
I3537
sS'IPR018034'
p2844
I2857
sS'IPR027794'
p2845
I2215
sS'IPR007871'
p2846
I3954
sS'IPR000967'
p2847
I3336
sS'IPR019365'
p2848
I3613
sS'IPR013243'
p2849
I3153
sS'IPR003732'
p2850
I3764
sS'IPR023610'
p2851
I2571
sS'IPR006297'
p2852
I2909
sS'IPR021264'
p2853
I3595
sS'IPR020683'
p2854
I27
sS'IPR006925'
p2855
I3477
sS'IPR011431'
p2856
I3305
sS'IPR007836'
p2857
I771
sS'IPR003953'
p2858
I1236
sS'IPR003952'
p2859
I2947
sS'IPR003956'
p2860
I926
sS'IPR003959'
p2861
I1121
sS'IPR002132'
p2862
I674
sS'IPR002133'
p2863
I781
sS'IPR011383'
p2864
I3988
sS'IPR011547'
p2865
I2399
sS'IPR002136'
p2866
I792
sS'IPR000971'
p2867
I2596
sS'IPR000977'
p2868
I299
sS'IPR024481'
p2869
I3372
sS'IPR011017'
p2870
I3784
sS'IPR000979'
p2871
I2456
sS'IPR014352'
p2872
I1691
sS'IPR020337'
p2873
I3838
sS'IPR006721'
p2874
I1227
sS'IPR001805'
p2875
I2982
sS'IPR006722'
p2876
I1853
sS'IPR004104'
p2877
I3617
sS'IPR003392'
p2878
I3913
sS'IPR003397'
p2879
I1944
sS'IPR003395'
p2880
I1957
sS'IPR013877'
p2881
I2371
sS'IPR013876'
p2882
I1878
sS'IPR013875'
p2883
I2207
sS'IPR013874'
p2884
I367
sS'IPR013873'
p2885
I368
sS'IPR024954'
p2886
I3597
sS'IPR013870'
p2887
I2234
sS'IPR012423'
p2888
I3308
sS'IPR010255'
p2889
I75
sS'IPR013878'
p2890
I1770
sS'IPR016009'
p2891
I3960
sS'IPR011650'
p2892
I681
sS'IPR007740'
p2893
I1526
sS'IPR007741'
p2894
I1755
sS'IPR014777'
p2895
I1773
sS'IPR014776'
p2896
I1774
sS'IPR011658'
p2897
I708
sS'IPR014772'
p2898
I3832
sS'IPR013272'
p2899
I1722
sS'IPR007414'
p2900
I670
sS'IPR016711'
p2901
I2370
sS'IPR000771'
p2902
I961
sS'IPR006439'
p2903
I1857
sS'IPR001807'
p2904
I2240
sS'IPR013057'
p2905
I2153
sS'IPR003726'
p2906
I3618
sS'IPR029043'
p2907
I3004
sS'IPR029041'
p2908
I644
sS'IPR029040'
p2909
I1965
sS'IPR029045'
p2910
I1932
sS'IPR029044'
p2911
I942
sS'IPR020719'
p2912
I3794
sS'IPR002140'
p2913
I3787
sS'IPR010896'
p2914
I207
sS'IPR007528'
p2915
I2027
sS'IPR007529'
p2916
I2464
sS'IPR010678'
p2917
I2758
sS'IPR007521'
p2918
I1203
sS'IPR026825'
p2919
I3744
sS'IPR000808'
p2920
I2787
sS'IPR000558'
p2921
I169
sS'IPR000559'
p2922
I473
sS'IPR000554'
p2923
I1556
sS'IPR000555'
p2924
I1989
sS'IPR000801'
p2925
I2736
sS'IPR000550'
p2926
I3283
sS'IPR000807'
p2927
I403
sS'IPR000552'
p2928
I719
sS'IPR016848'
p2929
I2384
sS'IPR001557'
p2930
I1089
sS'IPR001555'
p2931
I239
sS'IPR007255'
p2932
I3596
sS'IPR007252'
p2933
I3096
sS'IPR007250'
p2934
I1338
sS'IPR007251'
p2935
I2810
sS'IPR014824'
p2936
I1924
sS'IPR007258'
p2937
I2620
sS'IPR007259'
p2938
I2520
sS'IPR019398'
p2939
I3732
sS'IPR028877'
p2940
I716
sS'IPR024325'
p2941
I2886
sS'IPR007647'
p2942
I595
sS'IPR024326'
p2943
I1453
sS'IPR003778'
p2944
I1803
sS'IPR001952'
p2945
I831
sS'IPR001951'
p2946
I171
sS'IPR001950'
p2947
I1961
sS'IPR014349'
p2948
I565
sS'IPR013714'
p2949
I3527
sS'IPR016609'
p2950
I2346
sS'IPR021463'
p2951
I3929
sS'IPR003545'
p2952
I3684
sS'IPR001733'
p2953
I1004
sS'IPR001731'
p2954
I323
sS'IPR013650'
p2955
I3217
sS'IPR001737'
p2956
I989
sS'IPR001736'
p2957
I1489
sS'IPR013126'
p2958
I646
sS'IPR013499'
p2959
I270
sS'IPR008427'
p2960
I21
sS'IPR000396'
p2961
I1308
sS'IPR023534'
p2962
I2383
sS'IPR008238'
p2963
I1695
sS'IPR016197'
p2964
I1866
sS'IPR016196'
p2965
I693
sS'IPR000398'
p2966
I430
sS'IPR000399'
p2967
I391
sS'IPR016193'
p2968
I414
sS'IPR016192'
p2969
I413
sS'IPR013497'
p2970
I902
sS'IPR016190'
p2971
I632
sS'IPR017937'
p2972
I1106
sS'IPR007745'
p2973
I3928
sS'IPR017931'
p2974
I773
sS'IPR003601'
p2975
I897
sS'IPR012387'
p2976
I658
sS'IPR003603'
p2977
I3849
sS'IPR012385'
p2978
I1165
sS'IPR021061'
p2979
I2937
sS'IPR003604'
p2980
I1152
sS'IPR017938'
p2981
I1051
sS'IPR019796'
p2982
I823
sS'IPR016049'
p2983
I1959
sS'IPR002893'
p2984
I3463
sS'IPR016046'
p2985
I1964
sS'IPR016040'
p2986
I55
sS'IPR028088'
p2987
I1365
sS'IPR018847'
p2988
I2680
sS'IPR018844'
p2989
I2939
sS'IPR018843'
p2990
I3202
sS'IPR015898'
p2991
I1124
sS'IPR027065'
p2992
I2236
sS'IPR018849'
p2993
I2963
sS'IPR015890'
p2994
I135
sS'IPR003734'
p2995
I2897
sS'IPR002685'
p2996
I1546
sS'IPR024002'
p2997
I2452
sS'IPR013729'
p2998
I32
sS'IPR001607'
p2999
I2330
sS'IPR001606'
p3000
I651
sS'IPR013725'
p3001
I2416
sS'IPR001604'
p3002
I586
sS'IPR013862'
p3003
I3699
sS'IPR013721'
p3004
I2782
sS'IPR019083'
p3005
I2469
sS'IPR027532'
p3006
I4028
sS'IPR015947'
p3007
I602
sS'IPR025977'
p3008
I3736
sS'IPR015943'
p3009
I557
sS'IPR015942'
p3010
I1767
sS'IPR021661'
p3011
I841
sS'IPR021665'
p3012
I1706
sS'IPR004686'
p3013
I3868
sS'IPR021668'
p3014
I2280
sS'IPR024145'
p3015
I2403
sS'IPR005155'
p3016
I3848
sS'IPR015433'
p3017
I1319
sS'IPR008280'
p3018
I184
sS'IPR018609'
p3019
I2912
sS'IPR015760'
p3020
I1397
sS'IPR022647'
p3021
I199
sS'IPR022648'
p3022
I1036
sS'IPR022649'
p3023
I1035
sS'IPR018607'
p3024
I2530
sS'IPR004254'
p3025
I3485
sS'IPR025810'
p3026
I1409
sS'IPR021846'
p3027
I3996
sS'IPR017073'
p3028
I2723
sS'IPR019263'
p3029
I2343
sS'IPR013025'
p3030
I265
sS'IPR001854'
p3031
I770
sS'IPR001045'
p3032
I3878
sS'IPR001044'
p3033
I523
sS'IPR001046'
p3034
I2467
sS'IPR001040'
p3035
I488
sS'IPR009771'
p3036
I2737
sS'IPR001852'
p3037
I2876
sS'IPR022794'
p3038
I3025
sS'IPR008352'
p3039
I1782
sS'IPR001048'
p3040
I799
sS'IPR013021'
p3041
I844
sS'IPR025928'
p3042
I1531
sS'IPR025929'
p3043
I2508
sS'IPR005123'
p3044
I2662
sS'IPR017075'
p3045
I3379
sS'IPR000593'
p3046
I3927
sS'IPR008195'
p3047
I2773
sS'IPR005822'
p3048
I1553
sS'IPR025926'
p3049
I3315
sS'IPR008193'
p3050
I1587
sS'IPR028651'
p3051
I2489
sS'IPR015168'
p3052
I2860
sS'IPR023186'
p3053
I3557
sS'IPR018939'
p3054
I2927
sS'IPR005819'
p3055
I3242
sS'IPR018937'
p3056
I2780
sS'IPR018936'
p3057
I1320
sS'IPR005814'
p3058
I560
sS'IPR018934'
p3059
I2703
sS'IPR005810'
p3060
I3245
sS'IPR004813'
p3061
I2805
sS'IPR015360'
p3062
I1859
sS'IPR019467'
p3063
I3939
sS'IPR019465'
p3064
I3329
sS'IPR000049'
p3065
I2863
sS'IPR002634'
p3066
I2611
sS'IPR001857'
p3067
I1515
sS'IPR019468'
p3068
I3658
sS'IPR001180'
p3069
I1368
sS'IPR004493'
p3070
I1545
sS'IPR008991'
p3071
I338
sS'IPR005651'
p3072
I3266
sS'IPR005654'
p3073
I1716
sS'IPR023223'
p3074
I161
sS'IPR005720'
p3075
I1597
sS'IPR005722'
p3076
I120
sS'IPR027302'
p3077
I1711
sS'IPR027303'
p3078
I1710
sS'IPR023358'
p3079
I980
sS'IPR027097'
p3080
I2807
sS'IPR008978'
p3081
I1039
sS'IPR008979'
p3082
I903
sS'IPR028012'
p3083
I2333
sS'IPR018450'
p3084
I3438
sS'IPR009244'
p3085
I3809
sS'IPR008972'
p3086
I65
sS'IPR009011'
p3087
I3621
sS'IPR004923'
p3088
I2368
sS'IPR008971'
p3089
I1415
sS'IPR014764'
p3090
I3957
sS'IPR008974'
p3091
I3069
sS'IPR019519'
p3092
I2526
sS'IPR018023'
p3093
I3788
sS'IPR018022'
p3094
I559
sS'IPR019407'
p3095
I3318
sS'IPR018028'
p3096
I380
sS'IPR007886'
p3097
I2573
sS'IPR009001'
p3098
I192
sS'IPR009000'
p3099
I191
sS'IPR009003'
p3100
I2932
sS'IPR009006'
p3101
I581
sS'IPR009008'
p3102
I549
sS'IPR005036'
p3103
I1591
sS'IPR005037'
p3104
I3375
sS'IPR025815'
p3105
I2494
sS'IPR005033'
p3106
I2083
sS'IPR006603'
p3107
I1085
sS'IPR027238'
p3108
I3532
sS'IPR020233'
p3109
I2334
sS'IPR013750'
p3110
I250
sS'IPR002569'
p3111
I2660
sS'IPR027545'
p3112
I2298
sS'IPR027230'
p3113
I3081
sS'IPR027547'
p3114
I766
sS'IPR028275'
p3115
I3504
sS'IPR027235'
p3116
I2645
sS'IPR016158'
p3117
I2386
sS'IPR002099'
p3118
I953
sS'IPR027786'
p3119
I2872
sS'IPR002092'
p3120
I924
sS'IPR007019'
p3121
I2162
sS'IPR006939'
p3122
I1116
sS'IPR018333'
p3123
I2410
sS'IPR006285'
p3124
I2519
sS'IPR006282'
p3125
I2092
sS'IPR006931'
p3126
I2148
sS'IPR020831'
p3127
I57
sS'IPR020830'
p3128
I59
sS'IPR011421'
p3129
I2380
sS'IPR020835'
p3130
I384
sS'IPR013758'
p3131
I437
sS'IPR011425'
p3132
I1977
sS'IPR020839'
p3133
I2781
sS'IPR020838'
p3134
I3133
sS'IPR006113'
p3135
I2441
sS'IPR006110'
p3136
I1192
sS'IPR007641'
p3137
I596
sS'IPR007642'
p3138
I592
sS'IPR007645'
p3139
I597
sS'IPR007644'
p3140
I593
sS'IPR000941'
p3141
I137
sS'IPR007646'
p3142
I594
sS'IPR007648'
p3143
I163
sS'IPR020301'
p3144
I3296
sS'IPR026956'
p3145
I3125
sS'IPR016527'
p3146
I3346
sS'IPR013868'
p3147
I2425
sS'IPR027434'
p3148
I201
sS'IPR020818'
p3149
I2546
sS'IPR002891'
p3150
I3401
sS'IPR027437'
p3151
I756
sS'IPR013860'
p3152
I2035
sS'IPR013861'
p3153
I3921
sS'IPR003386'
p3154
I2727
sS'IPR013863'
p3155
I2701
sS'IPR003382'
p3156
I2017
sS'IPR013867'
p3157
I3407
sS'IPR017974'
p3158
I3751
sS'IPR005576'
p3159
I2038
sS'IPR019337'
p3160
I3103
sS'IPR000219'
p3161
I825
sS'IPR009291'
p3162
I3205
sS'IPR005787'
p3163
I144
sS'IPR020785'
p3164
I750
sS'IPR020784'
p3165
I751
sS'IPR020783'
p3166
I752
sS'IPR009292'
p3167
I3984
sS'IPR020781'
p3168
I649
sS'IPR014767'
p3169
I2743
sS'IPR007881'
p3170
I2192
sS'IPR014762'
p3171
I955
sS'IPR024671'
p3172
I1484
sS'IPR020789'
p3173
I1286
sS'IPR013262'
p3174
I3796
sS'IPR007396'
p3175
I2165
sS'IPR013260'
p3176
I3203
sS'IPR013261'
p3177
I3180
sS'IPR007461'
p3178
I1891
sS'IPR010280'
p3179
I2019
sS'IPR013268'
p3180
I3818
sS'IPR000706'
p3181
I3385
sS'IPR010285'
p3182
I507
sS'IPR000702'
p3183
I334
sS'IPR014906'
p3184
I1173
sS'IPR003162'
p3185
I3631
sS'IPR003163'
p3186
I1421
sS'IPR029058'
p3187
I585
sS'IPR024675'
p3188
I3546
sS'IPR003166'
p3189
I2205
sS'IPR003169'
p3190
I1958
sS'IPR029055'
p3191
I0
sS'IPR029056'
p3192
I1340
sS'IPR029057'
p3193
I221
sS'IPR006426'
p3194
I3049
sS'IPR026847'
p3195
I3775
sS'IPR029052'
p3196
I975
sS'IPR016391'
p3197
I3250
sS'IPR016722'
p3198
I2283
sS'IPR021752'
p3199
I2811
sS'IPR007083'
p3200
I226
sS'IPR007081'
p3201
I227
sS'IPR007080'
p3202
I224
sS'IPR021721'
p3203
I3952
sS'IPR014908'
p3204
I2218
sS'IPR007085'
p3205
I2761
sS'IPR007269'
p3206
I1838
sS'IPR007268'
p3207
I3843
sS'IPR016298'
p3208
I113
sS'IPR013000'
p3209
I789
sS'IPR007262'
p3210
I2964
sS'IPR022764'
p3211
I3194
sS'IPR000834'
p3212
I2507
sS'IPR001544'
p3213
I2541
sS'IPR007266'
p3214
I3459
sS'IPR007265'
p3215
I2693
sS'IPR007264'
p3216
I4021
sS'IPR000011'
p3217
I1314
sS'IPR007568'
p3218
I2696
sS'IPR014839'
p3219
I3805
sS'IPR000014'
p3220
I1145
sS'IPR011858'
p3221
I2783
sS'IPR007064'
p3222
I2518
sS'IPR007066'
p3223
I225
sS'IPR026569'
p3224
I2229
sS'IPR016520'
p3225
I3199
sS'IPR024337'
p3226
I3433
sS'IPR016611'
p3227
I3569
sS'IPR024338'
p3228
I2839
sS'IPR016613'
p3229
I3773
sS'IPR016614'
p3230
I3871
sS'IPR001940'
p3231
I3316
sS'IPR010111'
p3232
I3662
sS'IPR010110'
p3233
I615
sS'IPR001948'
p3234
I981
sS'IPR000490'
p3235
I1025
sS'IPR010117'
p3236
I2241
sS'IPR004226'
p3237
I3041
sS'IPR012734'
p3238
I2879
sS'IPR021475'
p3239
I3578
sS'IPR007859'
p3240
I3836
sS'IPR013130'
p3241
I1888
sS'IPR013131'
p3242
I714
sS'IPR013640'
p3243
I2684
sS'IPR001721'
p3244
I143
sS'IPR013134'
p3245
I879
sS'IPR016180'
p3246
I2264
sS'IPR016181'
p3247
I538
sS'IPR017408'
p3248
I3474
sS'IPR016185'
p3249
I212
sS'IPR006984'
p3250
I3636
sS'IPR016188'
p3251
I466
sS'IPR016189'
p3252
I631
sS'IPR017901'
p3253
I1098
sS'IPR017900'
p3254
I1252
sS'IPR017907'
p3255
I795
sS'IPR003864'
p3256
I3489
sS'IPR017905'
p3257
I1583
sS'IPR017904'
p3258
I3456
sS'IPR013895'
p3259
I2322
sS'IPR000127'
p3260
I1316
sS'IPR013943'
p3261
I1849
sS'IPR000120'
p3262
I1323
sS'IPR003616'
p3263
I2500
sS'IPR003615'
p3264
I203
sS'IPR012020'
p3265
I2360
sS'IPR016509'
p3266
I2328
sS'IPR016059'
p3267
I296
sS'IPR001830'
p3268
I1688
sS'IPR016055'
p3269
I2001
sS'IPR001834'
p3270
I2152
sS'IPR016053'
p3271
I1723
sS'IPR016050'
p3272
I1288
sS'IPR001837'
p3273
I1093
sS'IPR015880'
p3274
I475
sS'IPR012358'
p3275
I3554
sS'IPR015884'
p3276
I2127
sS'IPR021211'
p3277
I963
sS'IPR012470'
p3278
I2763
sS'IPR007941'
p3279
I2881
sS'IPR012606'
p3280
I358
sS'IPR012471'
p3281
I2891
sS'IPR013730'
p3282
I3922
sS'IPR001611'
p3283
I622
sS'IPR005886'
p3284
I255
sS'IPR013734'
p3285
I3254
sS'IPR018885'
p3286
I3508
sS'IPR007121'
p3287
I589
sS'IPR001619'
p3288
I1206
sS'IPR026971'
p3289
I3680
sS'IPR022419'
p3290
I1621
sS'IPR022418'
p3291
I1622
sS'IPR000231'
p3292
I948
sS'IPR010541'
p3293
I3481
sS'IPR022417'
p3294
I1623
sS'IPR015955'
p3295
I1091
sS'IPR000235'
p3296
I1550
sS'IPR000237'
p3297
I3741
sS'IPR022412'
p3298
I2896
sS'IPR024158'
p3299
I2855
sS'IPR012284'
p3300
I2443
sS'IPR025313'
p3301
I1197
sS'IPR012280'
p3302
I934
sS'IPR012571'
p3303
I2534
sS'IPR015424'
p3304
I377
sS'IPR015425'
p3305
I2741
sS'IPR015422'
p3306
I379
sS'IPR015421'
p3307
I378
sS'IPR004240'
p3308
I1899
sS'IPR004241'
p3309
I2306
sS'IPR022636'
p3310
I783
sS'IPR021858'
p3311
I317
sS'IPR022630'
p3312
I784
sS'IPR018618'
p3313
I2342
sS'IPR020581'
p3314
I3050
sS'IPR012572'
p3315
I2816
sS'IPR018368'
p3316
I1682
sS'IPR001075'
p3317
I1926
sS'IPR018369'
p3318
I2547
sS'IPR019185'
p3319
I2813
sS'IPR001057'
p3320
I1708
sS'IPR019186'
p3321
I3543
sS'IPR019181'
p3322
I2503
sS'IPR019180'
p3323
I3435
sS'IPR019183'
p3324
I3955
sS'IPR019182'
p3325
I2250
sS'IPR004396'
p3326
I2326
sS'IPR028095'
p3327
I3247
sS'IPR019189'
p3328
I2231
sS'IPR011005'
p3329
I3284
sS'IPR018859'
p3330
I2777
sS'IPR008162'
p3331
I119
sS'IPR022257'
p3332
I3490
sS'IPR018850'
p3333
I1916
sS'IPR018851'
p3334
I4016
sS'IPR018852'
p3335
I2447
sS'IPR004662'
p3336
I3386
sS'IPR018855'
p3337
I3647
sS'IPR018856'
p3338
I2558
sS'IPR006001'
p3339
I3517
sS'IPR027157'
p3340
I3840
sS'IPR023123'
p3341
I185
sS'IPR005821'
p3342
I3067
sS'IPR005825'
p3343
I344
sS'IPR005824'
p3344
I343
sS'IPR015174'
p3345
I2043
sS'IPR005829'
p3346
I692
sS'IPR005828'
p3347
I694
sS'IPR005283'
p3348
I2056
sS'IPR005282'
p3349
I1084
sS'IPR027159'
p3350
I2041
sS'IPR008386'
p3351
I3365
sS'IPR018102'
p3352
I402
sS'IPR018103'
p3353
I2100
sS'IPR019459'
p3354
I3920
sS'IPR019458'
p3355
I1079
sS'IPR018106'
p3356
I1095
sS'IPR018104'
p3357
I2549
sS'IPR018105'
p3358
I2099
sS'IPR019453'
p3359
I1578
sS'IPR019452'
p3360
I3758
sS'IPR018108'
p3361
I7
sS'IPR018109'
p3362
I2118
sS'IPR019325'
p3363
I2395
sS'IPR019455'
p3364
I1500
sS'IPR002625'
p3365
I2157
sS'IPR000407'
p3366
I1855
sS'IPR009163'
p3367
I1048
sS'IPR009161'
p3368
I1066
sS'IPR015088'
p3369
I920
sS'IPR004483'
p3370
I2061
sS'IPR004480'
p3371
I1863
sS'IPR007303'
p3372
I3912
sS'IPR005629'
p3373
I1783
sS'IPR004487'
p3374
I2376
sS'IPR015080'
p3375
I3511
sS'IPR029730'
p3376
I1512
sS'IPR004489'
p3377
I1256
sS'IPR018501'
p3378
I3138
sS'IPR023231'
p3379
I3501
sS'IPR014461'
p3380
I1962
sS'IPR005756'
p3381
I342
sS'IPR028000'
p3382
I2163
sS'IPR028005'
p3383
I2893
sS'IPR007308'
p3384
I2687
sS'IPR004939'
p3385
I3114
sS'IPR008949'
p3386
I600
sS'IPR008948'
p3387
I234
sS'IPR004932'
p3388
I1481
sS'IPR027485'
p3389
I3860
sS'IPR002657'
p3390
I3721
sS'IPR008942'
p3391
I1454
sS'IPR024931'
p3392
I3431
sS'IPR012588'
p3393
I3895
sS'IPR011701'
p3394
I894
sS'IPR011252'
p3395
I1210
sS'IPR011707'
p3396
I2570
sS'IPR011706'
p3397
I2569
sS'IPR011257'
p3398
I1273
sS'IPR011704'
p3399
I2136
sS'IPR002710'
p3400
I28
sS'IPR011709'
p3401
I1038
sS'IPR002713'
p3402
I1972
sS'IPR002715'
p3403
I2533
sS'IPR018038'
p3404
I330
sS'IPR002717'
p3405
I2047
sS'IPR009012'
p3406
I2407
sS'IPR009010'
p3407
I1118
sS'IPR025202'
p3408
I1490
sS'IPR009016'
p3409
I1356
sS'IPR009014'
p3410
I1351
sS'IPR008011'
p3411
I3577
sS'IPR008010'
p3412
I2688
sS'IPR009018'
p3413
I2566
sS'IPR009019'
p3414
I354
sS'IPR027939'
p3415
I2859
sS'IPR006636'
p3416
I1026
sS'IPR006634'
p3417
I1606
sS'IPR028268'
p3418
I2678
sS'IPR004134'
p3419
I3391
sS'IPR028267'
p3420
I2679
sS'IPR028261'
p3421
I4000
sS'IPR006639'
p3422
I2063
sS'IPR027200'
p3423
I2432
sS'IPR002081'
p3424
I316
sS'IPR002085'
p3425
I52
sS'IPR002088'
p3426
I1647
sS'IPR024729'
p3427
I3070
sS'IPR010472'
p3428
I2840
sS'IPR025755'
p3429
I791
sS'IPR018328'
p3430
I966
sS'IPR018326'
p3431
I967
sS'IPR018327'
p3432
I968
sS'IPR018325'
p3433
I969
sS'IPR020822'
p3434
I1696
sS'IPR006121'
p3435
I2400
sS'IPR020595'
p3436
I3115
sS'IPR020826'
p3437
I1350
sS'IPR020827'
p3438
I758
sS'IPR020828'
p3439
I58
sS'IPR020829'
p3440
I60
sS'IPR002629'
p3441
I328
sS'IPR001232'
p3442
I3091
sS'IPR006258'
p3443
I654
sS'IPR006709'
p3444
I3589
sS'IPR007651'
p3445
I1823
sS'IPR020318'
p3446
I3910
sS'IPR007654'
p3447
I409
sS'IPR002882'
p3448
I3338
sS'IPR006255'
p3449
I1139
sS'IPR006254'
p3450
I1593
sS'IPR006257'
p3451
I873
sS'IPR003377'
p3452
I2369
sS'IPR013815'
p3453
I215
sS'IPR013816'
p3454
I214
sS'IPR013813'
p3455
I2668
sS'IPR008814'
p3456
I3428
sS'IPR020798'
p3457
I2263
sS'IPR011678'
p3458
I1487
sS'IPR015194'
p3459
I2289
sS'IPR011671'
p3460
I3417
sS'IPR020795'
p3461
I3345
sS'IPR020796'
p3462
I3083
sS'IPR011078'
p3463
I2309
sS'IPR014751'
p3464
I3144
sS'IPR006383'
p3465
I2865
sS'IPR014756'
p3466
I986
sS'IPR007727'
p3467
I1078
sS'IPR011072'
p3468
I1389
sS'IPR018466'
p3469
I2577
sS'IPR011074'
p3470
I1384
sS'IPR007720'
p3471
I3213
sS'IPR011076'
p3472
I1260
sS'IPR013257'
p3473
I2930
sS'IPR013256'
p3474
I446
sS'IPR017593'
p3475
I1747
sS'IPR007472'
p3476
I1058
sS'IPR013252'
p3477
I3587
sS'IPR013251'
p3478
I3536
sS'IPR007471'
p3479
I1059
sS'IPR000717'
p3480
I1787
sS'IPR000715'
p3481
I536
sS'IPR000711'
p3482
I648
sS'IPR003115'
p3483
I2159
sS'IPR003114'
p3484
I3395
sS'IPR003117'
p3485
I525
sS'IPR020003'
p3486
I121
sS'IPR003111'
p3487
I2237
sS'IPR005031'
p3488
I3792
sS'IPR000494'
p3489
I1464
sS'IPR003285'
p3490
I325
sS'IPR013923'
p3491
I3522
sS'IPR013922'
p3492
I1171
sS'IPR003280'
p3493
I2719
sS'IPR013927'
p3494
I1265
sS'IPR013926'
p3495
I3507
sS'IPR013929'
p3496
I3580
sS'IPR017334'
p3497
I3545
sS'IPR000959'
p3498
I1816
sS'IPR010614'
p3499
I441
sS'IPR010613'
p3500
I3196
sS'IPR023382'
p3501
I3881
sS'IPR017137'
p3502
I1057
sS'IPR000952'
p3503
I2361
sS'IPR017132'
p3504
I3306
sS'IPR010619'
p3505
I2869
sS'IPR016261'
p3506
I3282
sS'IPR007853'
p3507
I2856
sS'IPR018647'
p3508
I3906
sS'IPR003480'
p3509
I3917
sS'IPR007274'
p3510
I2521
sS'IPR007275'
p3511
I3701
sS'IPR007276'
p3512
I4034
sS'IPR007277'
p3513
I2524
sS'IPR001533'
p3514
I2449
sS'IPR017071'
p3515
I1568
sS'IPR025712'
p3516
I3044
sS'IPR014808'
p3517
I2516
sS'IPR014807'
p3518
I2744
sS'IPR007073'
p3519
I230
sS'IPR000008'
p3520
I838
sS'IPR014804'
p3521
I3033
sS'IPR014803'
p3522
I2659
sS'IPR007074'
p3523
I2142
sS'IPR003754'
p3524
I395
sS'IPR011035'
p3525
I906
sS'IPR003591'
p3526
I1677
sS'IPR016661'
p3527
I3304
sS'IPR003594'
p3528
I187
sS'IPR004713'
p3529
I4047
sS'IPR027248'
p3530
I3689
sS'IPR024950'
p3531
I2292
sS'IPR010102'
p3532
I2268
sS'IPR003226'
p3533
I2692
sS'IPR013646'
p3534
I2866
sS'IPR001283'
p3535
I2179
sS'IPR001282'
p3536
I822
sS'IPR024943'
p3537
I2884
sS'IPR001727'
p3538
I2365
sS'IPR024945'
p3539
I1566
sS'IPR024946'
p3540
I436
sS'IPR013136'
p3541
I3139
sS'IPR013105'
p3542
I889
sS'IPR013103'
p3543
I17
sS'IPR013937'
p3544
I3396
sS'IPR013137'
p3545
I1632
sS'IPR001441'
p3546
I2087
sS'IPR001440'
p3547
I463
sS'IPR008728'
p3548
I3437
sS'IPR007223'
p3549
I3363
sS'IPR017916'
p3550
I1498
sS'IPR025788'
p3551
I2929
sS'IPR025789'
p3552
I3552
sS'IPR000132'
p3553
I2740
sS'IPR000133'
p3554
I1115
sS'IPR000131'
p3555
I2275
sS'IPR024545'
p3556
I2610
sS'IPR011039'
p3557
I2844
sS'IPR024543'
p3558
I2084
sS'IPR006175'
p3559
I2666
sS'IPR024789'
p3560
I3592
sS'IPR016067'
p3561
I1219
sS'IPR016066'
p3562
I2000
sS'IPR016064'
p3563
I1230
sS'IPR013032'
p3564
I1456
sS'IPR027244'
p3565
I2994
sS'IPR013035'
p3566
I807
sS'IPR013034'
p3567
I275
sS'IPR000961'
p3568
I363
sS'IPR019843'
p3569
I1504
sS'IPR019845'
p3570
I1648
sS'IPR010473'
p3571
I2841
sS'IPR012340'
p3572
I287
sS'IPR012617'
p3573
I3727
sS'IPR016314'
p3574
I633
sS'IPR013745'
p3575
I2390
sS'IPR001196'
p3576
I175
sS'IPR001667'
p3577
I2430
sS'IPR006591'
p3578
I2738
sS'IPR001661'
p3579
I1734
sS'IPR001192'
p3580
I1752
sS'IPR013743'
p3581
I3100
sS'IPR000245'
p3582
I1377
sS'IPR008576'
p3583
I2388
sS'IPR016082'
p3584
I331
sS'IPR016084'
p3585
I1450
sS'IPR001199'
p3586
I50
sS'IPR025308'
p3587
I260
sS'IPR000228'
p3588
I3793
sS'IPR015966'
p3589
I659
sS'IPR015965'
p3590
I661
sS'IPR019999'
p3591
I133
sS'IPR004015'
p3592
I1589
sS'IPR004014'
p3593
I307
sS'IPR012293'
p3594
I1194
sS'IPR025304'
p3595
I3039
sS'IPR012295'
p3596
I923
sS'IPR007220'
p3597
I1911
sS'IPR000225'
p3598
I2637
sS'IPR015413'
p3599
I157
sS'IPR015412'
p3600
I3290
sS'IPR005352'
p3601
I2661
sS'IPR015416'
p3602
I2097
sS'IPR024169'
p3603
I2882
sS'IPR015414'
p3604
I2221
sS'IPR024166'
p3605
I1496
sS'IPR015419'
p3606
I4019
sS'IPR015418'
p3607
I2974
sS'IPR012724'
p3608
I1477
sS'IPR005606'
p3609
I1624
sS'IPR018622'
p3610
I3575
sS'IPR018621'
p3611
I3965
sS'IPR006322'
p3612
I2851
sS'IPR018626'
p3613
I2168
sS'IPR004721'
p3614
I1169
sS'IPR018624'
p3615
I2021
sS'IPR003618'
p3616
I508
sS'IPR022628'
p3617
I786
sS'IPR004728'
p3618
I1257
sS'IPR011171'
p3619
I3898
sS'IPR011339'
p3620
I3452
sS'IPR019200'
p3621
I1049
sS'IPR001063'
p3622
I340
sS'IPR001060'
p3623
I2387
sS'IPR016833'
p3624
I3634
sS'IPR001269'
p3625
I3255
sS'IPR019197'
p3626
I3023
sS'IPR007143'
p3627
I3421
sS'IPR019192'
p3628
I2232
sS'IPR019193'
p3629
I2995
sS'IPR019190'
p3630
I2355
sS'IPR019191'
p3631
I2965
sS'IPR001261'
p3632
I680
sS'IPR001260'
p3633
I820
sS'IPR025160'
p3634
I3726
sS'IPR001266'
p3635
I528
sS'IPR026895'
p3636
I1486
sS'IPR026894'
p3637
I2587
sS'IPR025768'
p3638
I2901
sS'IPR026896'
p3639
I1418
sS'IPR004125'
p3640
I1182
sS'IPR018828'
p3641
I3834
sS'IPR022535'
p3642
I2483
sS'IPR018825'
p3643
I1524
sS'IPR018827'
p3644
I1525
sS'IPR025761'
p3645
I2902
sS'IPR026899'
p3646
I2418
sS'IPR004129'
p3647
I3450
sS'IPR018823'
p3648
I3136
sS'IPR025941'
p3649
I2600
sS'IPR005522'
p3650
I478
sS'IPR023115'
p3651
I1398
sS'IPR004838'
p3652
I1359
sS'IPR005294'
p3653
I479
sS'IPR005378'
p3654
I2039
sS'IPR004343'
p3655
I3112
sS'IPR004342'
p3656
I1042
sS'IPR004837'
p3657
I2853
sS'IPR018958'
p3658
I1820
sS'IPR004835'
p3659
I561
sS'IPR018488'
p3660
I527
sS'IPR018136'
p3661
I497
sS'IPR007317'
p3662
I3890
sS'IPR019339'
p3663
I3287
sS'IPR019448'
p3664
I2303
sS'IPR019449'
p3665
I3673
sS'IPR018943'
p3666
I4045
sS'IPR015348'
p3667
I1283
sS'IPR019446'
p3668
I2756
sS'IPR019447'
p3669
I2809
sS'IPR019440'
p3670
I2691
sS'IPR006693'
p3671
I2046
sS'IPR019442'
p3672
I3487
sS'IPR019443'
p3673
I3670
sS'IPR023591'
p3674
I1951
sS'IPR006692'
p3675
I2832
sS'IPR023595'
p3676
I3341
sS'IPR019680'
p3677
I3935
sS'IPR027046'
p3678
I2393
sS'IPR013960'
p3679
I3154
sS'IPR023753'
p3680
I655
sS'IPR005635'
p3681
I2352
sS'IPR005633'
p3682
I266
sS'IPR018220'
p3683
I3362
sS'IPR005746'
p3684
I1108
sS'IPR023578'
p3685
I304
sS'IPR002365'
p3686
I2409
sS'IPR002364'
p3687
I2329
sS'IPR023571'
p3688
I734
sS'IPR023573'
p3689
I717
sS'IPR012921'
p3690
I2178
sS'IPR023575'
p3691
I3265
sS'IPR023574'
p3692
I790
sS'IPR023577'
p3693
I10
sS'IPR005749'
p3694
I2228
sS'IPR011084'
p3695
I1652
sS'IPR008956'
p3696
I160
sS'IPR004908'
p3697
I2827
sS'IPR004907'
p3698
I1680
sS'IPR005176'
p3699
I3958
sS'IPR018555'
p3700
I3330
sS'IPR018557'
p3701
I20
sS'IPR018004'
p3702
I1422
sS'IPR008925'
p3703
I3027
sS'IPR011241'
p3704
I3383
sS'IPR011710'
p3705
I2830
sS'IPR002222'
p3706
I3263
sS'IPR019539'
p3707
I248
sS'IPR002767'
p3708
I2086
sS'IPR011249'
p3709
I482
sS'IPR002761'
p3710
I3968
sS'IPR005999'
p3711
I1701
sS'IPR009027'
p3712
I3611
sS'IPR009025'
p3713
I545
sS'IPR005998'
p3714
I332
sS'IPR009023'
p3715
I857
sS'IPR009022'
p3716
I1401
sS'IPR009020'
p3717
I642
sS'IPR027140'
p3718
I3675
sS'IPR027141'
p3719
I2681
sS'IPR022758'
p3720
I2082
sS'IPR027145'
p3721
I1519
sS'IPR009029'
p3722
I858
sS'IPR009028'
p3723
I1693
sS'IPR002504'
p3724
I1229
sS'IPR028293'
p3725
I2255
sS'IPR015915'
p3726
I1861
sS'IPR002501'
p3727
I1981
sS'IPR018391'
p3728
I1739
sS'IPR028297'
p3729
I3975
sS'IPR028299'
p3730
I1683
sS'IPR020491'
p3731
I2106
sS'IPR010440'
p3732
I3228
sS'IPR013144'
p3733
I2709
sS'IPR028458'
p3734
I3188
sS'IPR001674'
p3735
I2412
sS'IPR026635'
p3736
I2771
sS'IPR000915'
p3737
I337
sS'IPR003960'
p3738
I1120
sS'IPR018316'
p3739
I181
sS'IPR018314'
p3740
I2314
sS'IPR003965'
p3741
I454
sS'IPR014100'
p3742
I2517
sS'IPR008928'
p3743
I564
sS'IPR006134'
p3744
I919
sS'IPR009448'
p3745
I1267
sS'IPR002161'
p3746
I2874
sS'IPR020813'
p3747
I1024
sS'IPR006131'
p3748
I319
sS'IPR006132'
p3749
I320
sS'IPR002164'
p3750
I1414
sS'IPR009445'
p3751
I3119
sS'IPR006139'
p3752
I705
sS'IPR009447'
p3753
I2938
sS'IPR000911'
p3754
I749
sS'IPR002219'
p3755
I1390
sS'IPR002218'
p3756
I3116
sS'IPR019013'
p3757
I2826
sS'IPR020675'
p3758
I701
sS'IPR015496'
p3759
I3024
sS'IPR002189'
p3760
I1604
sS'IPR009846'
p3761
I668
sS'IPR002180'
p3762
I3082
sS'IPR013805'
p3763
I2408
sS'IPR027458'
p3764
I2
sS'IPR019540'
p3765
I3547
sS'IPR024864'
p3766
I3043
sS'IPR008685'
p3767
I2615
sS'IPR004854'
p3768
I3108
sS'IPR011665'
p3769
I1633
sS'IPR014049'
p3770
I3803
sS'IPR007861'
p3771
I1431
sS'IPR007860'
p3772
I1430
sS'IPR014030'
p3773
I1135
sS'IPR014031'
p3774
I1136
sS'IPR010591'
p3775
I1762
sS'IPR007716'
p3776
I2024
sS'IPR007715'
p3777
I15
sS'IPR014743'
p3778
I2239
sS'IPR007868'
p3779
I663
sS'IPR007718'
p3780
I1837
sS'IPR006626'
p3781
I2996
sS'IPR000722'
p3782
I229
sS'IPR002775'
p3783
I3179
sS'IPR000727'
p3784
I1332
sS'IPR017210'
p3785
I3320
sS'IPR010918'
p3786
I467
sS'IPR017866'
p3787
I3215
sS'IPR024225'
p3788
I1309
sS'IPR017867'
p3789
I2728
sS'IPR003103'
p3790
I2784
sS'IPR024222'
p3791
I3785
sS'IPR008564'
p3792
I2561
sS'IPR013933'
p3793
I1910
sS'IPR013930'
p3794
I3581
sS'IPR013632'
p3795
I1420
sS'IPR017862'
p3796
I1588
sS'IPR013934'
p3797
I3661
sS'IPR013935'
p3798
I3560
sS'IPR023801'
p3799
I1815
sS'IPR013635'
p3800
I2759
sS'IPR023803'
p3801
I3414
sS'IPR013939'
p3802
I1720
sS'IPR010625'
p3803
I37
sS'IPR001206'
p3804
I3676
sS'IPR017455'
p3805
I1851
sS'IPR017106'
p3806
I1692
sS'IPR017105'
p3807
I3844
sS'IPR017456'
p3808
I1602
sS'IPR017459'
p3809
I535
sS'IPR000924'
p3810
I905
sS'IPR000926'
p3811
I2267
sS'IPR027031'
p3812
I2278
sS'IPR007281'
p3813
I1908
sS'IPR000330'
p3814
I1272
sS'IPR016270'
p3815
I1488
sS'IPR007282'
p3816
I364
sS'IPR000851'
p3817
I1471
sS'IPR000850'
p3818
I455
sS'IPR007287'
p3819
I2016
sS'IPR001529'
p3820
I1584
sS'IPR005293'
p3821
I1979
sS'IPR017854'
p3822
I763
sS'IPR017856'
p3823
I3174
sS'IPR001522'
p3824
I1214
sS'IPR017850'
p3825
I833
sS'IPR017853'
p3826
I711
sS'IPR017852'
p3827
I2145
sS'IPR012993'
p3828
I2282
sS'IPR024319'
p3829
I1279
sS'IPR000035'
p3830
I1275
sS'IPR012990'
p3831
I1001
sS'IPR000031'
p3832
I1222
sS'IPR003033'
p3833
I3810
sS'IPR012999'
p3834
I652
sS'IPR027137'
p3835
I982
sS'IPR003034'
p3836
I794
sS'IPR000038'
p3837
I1438
sS'IPR003583'
p3838
I1274
sS'IPR013253'
p3839
I3143
sS'IPR003586'
p3840
I1082
sS'IPR003587'
p3841
I1081
sS'IPR013248'
p3842
I3426
sS'IPR007918'
p3843
I34
sS'IPR010139'
p3844
I2014
sS'IPR013240'
p3845
I2933
sS'IPR013241'
p3846
I3271
sS'IPR007144'
p3847
I2062
sS'IPR013244'
p3848
I4001
sS'IPR013246'
p3849
I3457
sS'IPR013110'
p3850
I3553
sS'IPR001295'
p3851
I1596
sS'IPR001296'
p3852
I1064
sS'IPR024956'
p3853
I3176
sS'IPR021183'
p3854
I888
sS'IPR013116'
p3855
I389
sS'IPR006153'
p3856
I2717
sS'IPR001452'
p3857
I302
sS'IPR001453'
p3858
I3466
sS'IPR000109'
p3859
I1947
sS'IPR001451'
p3860
I1793
sS'IPR001985'
p3861
I1216
sS'IPR000453'
p3862
I1616
sS'IPR000454'
p3863
I3357
sS'IPR000456'
p3864
I1306
sS'IPR021056'
p3865
I2942
sS'IPR025574'
p3866
I3045
sS'IPR024557'
p3867
I1534
sS'IPR024554'
p3868
I3749
sS'IPR024555'
p3869
I3750
sS'IPR024550'
p3870
I2175
sS'IPR016071'
p3871
I3146
sS'IPR001858'
p3872
I958
sS'IPR016073'
p3873
I3093
sS'IPR013024'
p3874
I1865
sS'IPR017072'
p3875
I1361
sS'IPR013026'
p3876
I460
sS'IPR013027'
p3877
I657
sS'IPR013020'
p3878
I444
sS'IPR024791'
p3879
I68
sS'IPR013022'
p3880
I1337
sS'IPR013023'
p3881
I386
sS'IPR001189'
p3882
I79
sS'IPR019831'
p3883
I81
sS'IPR019830'
p3884
I1259
sS'IPR019833'
p3885
I80
sS'IPR019832'
p3886
I82
sS'IPR016302'
p3887
I149
sS'IPR016300'
p3888
I3896
sS'IPR016301'
p3889
I1223
sS'IPR013757'
p3890
I438
sS'IPR016098'
p3891
I1099
sS'IPR001672'
p3892
I875
sS'IPR001670'
p3893
I775
sS'IPR019050'
p3894
I2644
sS'IPR016092'
p3895
I3772
sS'IPR016093'
p3896
I1674
sS'IPR025687'
p3897
I956
sS'IPR016094'
p3898
I738
sS'IPR016095'
p3899
I739
sS'IPR015974'
p3900
I768
sS'IPR015972'
p3901
I767
sS'IPR000218'
p3902
I732
sS'IPR000217'
p3903
I179
sS'IPR004007'
p3904
I2877
sS'IPR029071'
p3905
I359
sS'IPR001705'
p3906
I2235
sS'IPR000212'
p3907
I890
sS'IPR004000'
p3908
I1750
sS'IPR004001'
p3909
I3355
sS'IPR015404'
p3910
I1963
sS'IPR012978'
p3911
I4005
sS'IPR015403'
p3912
I812
sS'IPR012971'
p3913
I3268
sS'IPR002296'
p3914
I3980
sS'IPR012973'
p3915
I3442
sS'IPR012972'
p3916
I1465
sS'IPR015408'
p3917
I1733
sS'IPR012974'
p3918
I3977
sS'IPR012977'
p3919
I3220
sS'IPR012976'
p3920
I3061
sS'IPR001678'
p3921
I2316
sS'IPR004712'
p3922
I4038
sS'IPR026270'
p3923
I2426
sS'IPR019236'
p3924
I3321
sS'IPR015994'
p3925
I805
sS'IPR027034'
p3926
I3730
sS'IPR001078'
p3927
I874
sS'IPR003721'
p3928
I2747
sS'IPR022631'
p3929
I782
sS'IPR016899'
p3930
I1880
sS'IPR001071'
p3931
I1385
sS'IPR001278'
p3932
I2439
sS'IPR001279'
p3933
I1310
sS'IPR013212'
p3934
I2815
sS'IPR001272'
p3935
I804
sS'IPR001270'
p3936
I1686
sS'IPR018996'
p3937
I3470
sS'IPR008147'
p3938
I1712
sS'IPR008145'
p3939
I1011
sS'IPR008144'
p3940
I1013
sS'IPR004640'
p3941
I3161
sS'IPR025204'
p3942
I2344
sS'IPR018838'
p3943
I3182
sS'IPR018837'
p3944
I2589
sS'IPR018834'
p3945
I1080
sS'IPR018835'
p3946
I3509
sS'IPR021983'
p3947
I1993
sS'IPR026888'
p3948
I1715
sS'IPR018300'
p3949
I2542
sS'IPR004358'
p3950
I2626
sS'IPR008812'
p3951
I3128
sS'IPR010140'
p3952
I2422
sS'IPR018940'
p3953
I1776
sS'IPR008816'
p3954
I2702
sS'IPR004353'
p3955
I3140
sS'IPR018122'
p3956
I1451
sS'IPR004827'
p3957
I195
sS'IPR018124'
p3958
I1580
sS'IPR004821'
p3959
I912
sS'IPR004354'
p3960
I1915
sS'IPR016195'
p3961
I2423
sS'IPR006808'
p3962
I3919
sS'IPR025995'
p3963
I3825
sS'IPR013219'
p3964
I3212
sS'IPR023584'
p3965
I2463
sS'IPR010923'
p3966
I1831
sS'IPR023580'
p3967
I1287
sS'IPR009637'
p3968
I1923
sS'IPR018951'
p3969
I570
sS'IPR005194'
p3970
I3005
sS'IPR008721'
p3971
I2498
sS'IPR005198'
p3972
I2170
sS'IPR023214'
p3973
I309
sS'IPR023215'
p3974
I1159
sS'IPR005600'
p3975
I253
sS'IPR023210'
p3976
I947
sS'IPR023211'
p3977
I918
sS'IPR005605'
p3978
I1112
sS'IPR023213'
p3979
I872
sS'IPR004733'
p3980
I469
sS'IPR002373'
p3981
I526
sS'IPR002376'
p3982
I240
sS'IPR000818'
p3983
I1114
sS'IPR023563'
p3984
I1554
sS'IPR002379'
p3985
I1376
sS'IPR023566'
p3986
I1174
sS'IPR016524'
p3987
I3778
sS'IPR023564'
p3988
I1555
sS'IPR028061'
p3989
I2769
sS'IPR004910'
p3990
I2307
sS'IPR008927'
p3991
I387
sS'IPR008926'
p3992
I1238
sS'IPR008921'
p3993
I2337
sS'IPR006896'
p3994
I1002
sS'IPR006895'
p3995
I998
sS'IPR004918'
p3996
I365
sS'IPR005937'
p3997
I1974
sS'IPR005990'
p3998
I2428
sS'IPR005996'
p3999
I1176
sS'IPR009038'
p4000
I1900
sS'IPR019544'
p4001
I3948
sS'IPR015376'
p4002
I3152
sS'IPR012164'
p4003
I1585
sS'IPR002778'
p4004
I1643
sS'IPR019542'
p4005
I2885
sS'IPR009033'
p4006
I1581
sS'IPR002773'
p4007
I2474
sS'IPR015429'
p4008
I2254
sS'IPR001404'
p4009
I186
sS'IPR018492'
p4010
I1072
sS'IPR012459'
p4011
I3714
sS'IPR018494'
p4012
I2115
sS'IPR018495'
p4013
I2009
sS'IPR027132'
p4014
I4002
sS'IPR027267'
p4015
I1439
sS'IPR028281'
p4016
I1032
sS'IPR002172'
p4017
I3620
sS'IPR011876'
p4018
I1015
sS'IPR006093'
p4019
I3342
sS'IPR020485'
p4020
I3584
sS'IPR006091'
p4021
I938
sS'IPR003807'
p4022
I2672
sS'IPR006097'
p4023
I493
sS'IPR006095'
p4024
I492
sS'IPR001369'
p4025
I3650
sS'IPR001055'
p4026
I3908
sS'IPR005931'
p4027
I517
sS'IPR028115'
p4028
I2169
sS'IPR011184'
p4029
I1538
sS'IPR028119'
p4030
I3008
sS'IPR009450'
p4031
I2920
sS'IPR015374'
p4032
I2189
sS'IPR020809'
p4033
I138
sS'IPR008384'
p4034
I1973
sS'IPR018303'
p4035
I308
sS'IPR018304'
p4036
I3231
sS'IPR018305'
p4037
I3403
sS'IPR007244'
p4038
I3402
sS'IPR022966'
p4039
I1379
sS'IPR013928'
p4040
I4039
sS'IPR002737'
p4041
I2955
sS'IPR002171'
p4042
I740
sS'IPR028598'
p4043
I3601
sS'IPR002173'
p4044
I1424
sS'IPR009453'
p4045
I4043
sS'IPR023366'
p4046
I480
sS'IPR028009'
p4047
I2892
sS'IPR023362'
p4048
I1445
sS'IPR007240'
p4049
I3706
s.